(lp0
(I60000
cnumpy.core.multiarray
scalar
p1
(cnumpy
dtype
p2
(S'f8'
p3
I0
I1
tp4
Rp5
(I3
S'<'
p6
NNNI-1
I-1
I0
tp7
bS'\x00\x00\x00\x00\x00\x00\x00\x00'
p8
tp9
Rp10
F-inf
F0.0
tp11
a(I70000
g1
(g5
S'\x00\x00\x00\x00\x00\x00\x00\x00'
p12
tp13
Rp14
F-inf
F0.0
tp15
a(I80000
g1
(g5
S'\x00\x00\x00\x00\x00\x00\x00\x00'
p16
tp17
Rp18
F-inf
F0.0
tp19
a(I90000
g1
(g5
S'\x00\x00\x00\x00\x00\x00\x00\x00'
p20
tp21
Rp22
F-inf
F0.0
tp23
a(I100000
g1
(g5
S'\x00\x00\x00\x00\x00\x00\x00\x00'
p24
tp25
Rp26
F-inf
F0.0
tp27
a(I110000
g1
(g5
S'\x00\x00\x00\x00\x00\x00\x00\x00'
p28
tp29
Rp30
F-inf
F0.0
tp31
a(I120000
g1
(g5
S'\x00\x00\x00\x00\x00\x00\x00\x00'
p32
tp33
Rp34
F-inf
F0.0
tp35
a(I130000
g1
(g5
S'\x00\x00\x00\x00\x00\x00\x00\x00'
p36
tp37
Rp38
F-inf
F0.0
tp39
a(I140000
g1
(g5
S'\x00\x00\x00\x00\x00\x00\x00\x00'
p40
tp41
Rp42
F-inf
F0.0
tp43
a(I150000
g1
(g5
S'\x00\x00\x00\x00\x00\x00\x00\x00'
p44
tp45
Rp46
F-inf
F0.0
tp47
a(I160000
g1
(g5
S'\x00\x00\x00\x00\x00\x00\x00\x00'
p48
tp49
Rp50
F-inf
F0.0
tp51
a(I170000
g1
(g5
S'\x00\x00\x00\x00\x00\x00\x00\x00'
p52
tp53
Rp54
F-inf
F0.0
tp55
a(I180000
g1
(g5
S'\x00\x00\x00\x00\x00\x00\x00\x00'
p56
tp57
Rp58
F-inf
F0.0
tp59
a(I190000
g1
(g5
S'\x00\x00\x00\x00\x00\x00\x00\x00'
p60
tp61
Rp62
F-inf
F0.0
tp63
a(I200000
g1
(g5
S'\x00\x00\x00\x00\x00\x00\x00\x00'
p64
tp65
Rp66
F-inf
F0.0
tp67
a(I210000
g1
(g5
S'\x00\x00\x00\x00\x00\x00\x00\x00'
p68
tp69
Rp70
F-inf
F0.0
tp71
a(I220000
g1
(g5
S'\x00\x00\x00\x00\x00\x00\x00\x00'
p72
tp73
Rp74
F-inf
F0.0
tp75
a(I230000
g1
(g5
S'\x00\x00\x00\x00\x00\x00\x00\x00'
p76
tp77
Rp78
F-inf
F0.0
tp79
a(I240000
g1
(g5
S'\x00\x00\x00\x00\x00\x00\x00\x00'
p80
tp81
Rp82
F-inf
F0.0
tp83
a(I250000
g1
(g5
S'\x00\x00\x00\x00\x00\x00\x00\x00'
p84
tp85
Rp86
F-inf
F0.0
tp87
a(I260000
g1
(g5
S'\x00\x00\x00\x00\x00\x00\x00\x00'
p88
tp89
Rp90
F-inf
F0.0
tp91
a(I270000
g1
(g5
S'\x00\x00\x00\x00\x00\x00\x00\x00'
p92
tp93
Rp94
F-inf
F0.0
tp95
a(I280000
g1
(g5
S'\x00\x00\x00\x00\x00\x00\x00\x00'
p96
tp97
Rp98
F-inf
F0.0
tp99
a(I290000
g1
(g5
S'\x00\x00\x00\x00\x00\x00\x00\x00'
p100
tp101
Rp102
F-inf
F0.0
tp103
a(I300000
g1
(g5
S'\x00\x00\x00\x00\x00\x00\x00\x00'
p104
tp105
Rp106
F-inf
F0.0
tp107
a(I310000
g1
(g5
S'\x00\x00\x00\x00\x00\x00\x00\x00'
p108
tp109
Rp110
F-inf
F0.0
tp111
a(I320000
g1
(g5
S'\x00\x00\x00\x00\x00\x00\x00\x00'
p112
tp113
Rp114
F-inf
F0.0
tp115
a(I330000
g1
(g5
S'\x00\x00\x00\x00\x00\x00\x00\x00'
p116
tp117
Rp118
F-inf
F0.0
tp119
a(I340000
g1
(g5
S'\x00\x00\x00\x00\x00\x00\x00\x00'
p120
tp121
Rp122
g1
(g5
S'\x00\x00\x00\x00\x00\x00\x00\x00'
p123
tp124
Rp125
F0.0
tp126
a(I350000
g1
(g5
S'\x00\x00\x00\x00\x00\x00\x00\x00'
p127
tp128
Rp129
g125
F0.0
tp130
a(I360000
g1
(g5
S'\x00\x00\x00\x00\x00\x00\x00\x00'
p131
tp132
Rp133
g125
F0.0
tp134
a(I370000
g1
(g5
S'\x00\x00\x00\x00\x00\x00\x00\x00'
p135
tp136
Rp137
g125
F0.0
tp138
a(I380000
g1
(g5
S'\x00\x00\x00\x00\x00\x00\x00\x00'
p139
tp140
Rp141
g125
F0.0
tp142
a(I390000
g1
(g5
S'\x00\x00\x00\x00\x00\x00\x00\x00'
p143
tp144
Rp145
g125
F0.0
tp146
a(I400000
g1
(g5
S'\x00\x00\x00\x00\x00\x00\x00\x00'
p147
tp148
Rp149
g125
F0.0
tp150
a(I410000
g1
(g5
S'\x00\x00\x00\x00\x00\x00\x00\x00'
p151
tp152
Rp153
g125
F0.0
tp154
a(I420000
g1
(g5
S'\x00\x00\x00\x00\x00\x00\x00\x00'
p155
tp156
Rp157
g125
F0.0
tp158
a(I430000
g1
(g5
S'\x00\x00\x00\x00\x00\x00\x00\x00'
p159
tp160
Rp161
g125
F0.0
tp162
a(I440000
g1
(g5
S'\x00\x00\x00\x00\x00\x00\x00\x00'
p163
tp164
Rp165
g125
F0.0
tp166
a(I450000
g1
(g5
S'\x00\x00\x00\x00\x00\x00\x00\x00'
p167
tp168
Rp169
g125
F0.0
tp170
a(I460000
g1
(g5
S'\x00\x00\x00\x00\x00\x00\x00\x00'
p171
tp172
Rp173
g125
F0.0
tp174
a(I470000
g1
(g5
S'\x00\x00\x00\x00\x00\x00\x00\x00'
p175
tp176
Rp177
g125
F0.0
tp178
a(I480000
g1
(g5
S'\x00\x00\x00\x00\x00\x00\x00\x00'
p179
tp180
Rp181
g125
F0.0
tp182
a(I490000
g1
(g5
S'\x00\x00\x00\x00\x00\x00\x00\x00'
p183
tp184
Rp185
g125
F0.0
tp186
a(I500000
g1
(g5
S'\x00\x00\x00\x00\x00\x00\x00\x00'
p187
tp188
Rp189
g125
F0.0
tp190
a(I510000
g1
(g5
S'\x00\x00\x00\x00\x00\x00\x00\x00'
p191
tp192
Rp193
g125
F0.0
tp194
a(I520000
g1
(g5
S'\x00\x00\x00\x00\x00\x00\x00\x00'
p195
tp196
Rp197
g125
F0.0
tp198
a(I530000
g1
(g5
S'\x00\x00\x00\x00\x00\x00\x00\x00'
p199
tp200
Rp201
g125
F0.0
tp202
a(I540000
g1
(g5
S'\x00\x00\x00\x00\x00\x00\x00\x00'
p203
tp204
Rp205
g125
F0.0
tp206
a(I550000
g1
(g5
S'\x00\x00\x00\x00\x00\x00\x00\x00'
p207
tp208
Rp209
g125
F0.0
tp210
a(I560000
g1
(g5
S'\x00\x00\x00\x00\x00\x00\x00\x00'
p211
tp212
Rp213
g125
F0.0
tp214
a(I570000
g1
(g5
S'\x00\x00\x00\x00\x00\x00\x00\x00'
p215
tp216
Rp217
g125
F0.0
tp218
a(I580000
g1
(g5
S'\x00\x00\x00\x00\x00\x00\x00\x00'
p219
tp220
Rp221
g125
F0.0
tp222
a(I590000
g1
(g5
S'\x00\x00\x00\x00\x00\x00\x00\x00'
p223
tp224
Rp225
g125
F0.0
tp226
a(I600000
g1
(g5
S'\x00\x00\x00\x00\x00\x00\x00\x00'
p227
tp228
Rp229
g125
F0.0
tp230
a(I610000
g1
(g5
S'\x00\x00\x00\x00\x00\x00\x00\x00'
p231
tp232
Rp233
g125
F0.0
tp234
a(I620000
g1
(g5
S'\x00\x00\x00\x00\x00\x00\x00\x00'
p235
tp236
Rp237
g125
F0.0
tp238
a(I630000
g1
(g5
S'\x00\x00\x00\x00\x00\x00\x00\x00'
p239
tp240
Rp241
g125
F0.0
tp242
a(I640000
g1
(g5
S'\x00\x00\x00\x00\x00\x00\x00\x00'
p243
tp244
Rp245
g125
F0.0
tp246
a(I650000
g1
(g5
S'\x00\x00\x00\x00\x00\x00\x00\x00'
p247
tp248
Rp249
g125
F0.0
tp250
a(I660000
g1
(g5
S'{\x14\xaeG\xe1z\x84?'
p251
tp252
Rp253
g1
(g5
S'{\x14\xaeG\xe1z\x84?'
p254
tp255
Rp256
F0.0
tp257
a(I670000
g1
(g5
S'{\x14\xaeG\xe1z\x84?'
p258
tp259
Rp260
g256
F0.0
tp261
a(I680000
g1
(g5
S'{\x14\xaeG\xe1z\x84?'
p262
tp263
Rp264
g256
F0.0
tp265
a(I690000
g1
(g5
S'{\x14\xaeG\xe1z\x84?'
p266
tp267
Rp268
g256
F0.0
tp269
a(I700000
g1
(g5
S'{\x14\xaeG\xe1z\x84?'
p270
tp271
Rp272
g256
F0.0
tp273
a(I710000
g1
(g5
S'{\x14\xaeG\xe1z\x84?'
p274
tp275
Rp276
g256
F0.0
tp277
a(I720000
g1
(g5
S'{\x14\xaeG\xe1z\x84?'
p278
tp279
Rp280
g256
F0.0
tp281
a(I730000
g1
(g5
S'{\x14\xaeG\xe1z\x84?'
p282
tp283
Rp284
g256
F0.0
tp285
a(I740000
g1
(g5
S'{\x14\xaeG\xe1z\x84?'
p286
tp287
Rp288
g256
F0.0
tp289
a(I750000
g1
(g5
S'{\x14\xaeG\xe1z\x84?'
p290
tp291
Rp292
g256
F0.0
tp293
a(I760000
g1
(g5
S'{\x14\xaeG\xe1z\x84?'
p294
tp295
Rp296
g256
F0.0
tp297
a(I770000
g1
(g5
S'{\x14\xaeG\xe1z\x84?'
p298
tp299
Rp300
g256
F0.0
tp301
a(I780000
g1
(g5
S'{\x14\xaeG\xe1z\x84?'
p302
tp303
Rp304
g256
F0.0
tp305
a(I790000
g1
(g5
S'{\x14\xaeG\xe1z\x84?'
p306
tp307
Rp308
g256
F0.0
tp309
a(I800000
g1
(g5
S'{\x14\xaeG\xe1z\x84?'
p310
tp311
Rp312
g256
F0.0
tp313
a(I810000
g1
(g5
S'{\x14\xaeG\xe1z\x84?'
p314
tp315
Rp316
g256
F0.0
tp317
a(I820000
g1
(g5
S'{\x14\xaeG\xe1z\x84?'
p318
tp319
Rp320
g256
F0.0
tp321
a(I830000
g1
(g5
S'{\x14\xaeG\xe1z\x84?'
p322
tp323
Rp324
g256
F0.0
tp325
a(I840000
g1
(g5
S'{\x14\xaeG\xe1z\x84?'
p326
tp327
Rp328
g256
F0.0
tp329
a(I850000
g1
(g5
S'{\x14\xaeG\xe1z\x84?'
p330
tp331
Rp332
g256
F0.0
tp333
a(I860000
g1
(g5
S'\x9a\x99\x99\x99\x99\x99\xa9?'
p334
tp335
Rp336
g1
(g5
S'\x9a\x99\x99\x99\x99\x99\xa9?'
p337
tp338
Rp339
F4.0
tp340
a(I870000
g1
(g5
S'\x9a\x99\x99\x99\x99\x99\xa9?'
p341
tp342
Rp343
g339
F0.0
tp344
a(I880000
g1
(g5
S'\x9a\x99\x99\x99\x99\x99\xa9?'
p345
tp346
Rp347
g339
F0.0
tp348
a(I890000
g1
(g5
S'\x9a\x99\x99\x99\x99\x99\xb9?'
p349
tp350
Rp351
g1
(g5
S'\x9a\x99\x99\x99\x99\x99\xb9?'
p352
tp353
Rp354
F0.0
tp355
a(I900000
g1
(g5
S')\\\x8f\xc2\xf5(\xbc?'
p356
tp357
Rp358
g1
(g5
S')\\\x8f\xc2\xf5(\xbc?'
p359
tp360
Rp361
F0.0
tp362
a(I910000
g1
(g5
S')\\\x8f\xc2\xf5(\xbc?'
p363
tp364
Rp365
g361
F0.0
tp366
a(I920000
g1
(g5
S')\\\x8f\xc2\xf5(\xbc?'
p367
tp368
Rp369
g361
F0.0
tp370
a(I930000
g1
(g5
S')\\\x8f\xc2\xf5(\xbc?'
p371
tp372
Rp373
g361
F0.0
tp374
a(I940000
g1
(g5
S')\\\x8f\xc2\xf5(\xbc?'
p375
tp376
Rp377
g361
F0.0
tp378
a(I950000
g1
(g5
S')\\\x8f\xc2\xf5(\xbc?'
p379
tp380
Rp381
g361
F0.0
tp382
a(I960000
g1
(g5
S')\\\x8f\xc2\xf5(\xbc?'
p383
tp384
Rp385
g361
F0.0
tp386
a(I970000
g1
(g5
S')\\\x8f\xc2\xf5(\xbc?'
p387
tp388
Rp389
g361
F0.0
tp390
a(I980000
g1
(g5
S'\xecQ\xb8\x1e\x85\xeb\xc1?'
p391
tp392
Rp393
g1
(g5
S'\xecQ\xb8\x1e\x85\xeb\xc1?'
p394
tp395
Rp396
F0.0
tp397
a(I990000
g1
(g5
S'\xecQ\xb8\x1e\x85\xeb\xc1?'
p398
tp399
Rp400
g1
(g5
S'333333\xc3?'
p401
tp402
Rp403
F0.0
tp404
a(I1000000
g1
(g5
S'\xecQ\xb8\x1e\x85\xeb\xc1?'
p405
tp406
Rp407
g403
F0.0
tp408
a(I1010000
g1
(g5
S'\xecQ\xb8\x1e\x85\xeb\xc1?'
p409
tp410
Rp411
g403
F0.0
tp412
a(I1020000
g1
(g5
S'333333\xc3?'
p413
tp414
Rp415
g403
F0.0
tp416
a(I1030000
g1
(g5
S'333333\xc3?'
p417
tp418
Rp419
g403
F0.0
tp420
a(I1040000
g1
(g5
S'R\xb8\x1e\x85\xebQ\xc8?'
p421
tp422
Rp423
g1
(g5
S'R\xb8\x1e\x85\xebQ\xc8?'
p424
tp425
Rp426
F0.0
tp427
a(I1050000
g1
(g5
S'\xb8\x1e\x85\xebQ\xb8\xce?'
p428
tp429
Rp430
g1
(g5
S'\xb8\x1e\x85\xebQ\xb8\xce?'
p431
tp432
Rp433
F0.0
tp434
a(I1060000
g1
(g5
S'\xb8\x1e\x85\xebQ\xb8\xce?'
p435
tp436
Rp437
g433
F0.0
tp438
a(I1070000
g1
(g5
S'\xb8\x1e\x85\xebQ\xb8\xce?'
p439
tp440
Rp441
g433
F0.0
tp442
a(I1080000
g1
(g5
S'\xb8\x1e\x85\xebQ\xb8\xce?'
p443
tp444
Rp445
g433
F0.0
tp446
a(I1090000
g1
(g5
S'\xb8\x1e\x85\xebQ\xb8\xce?'
p447
tp448
Rp449
g433
F0.0
tp450
a(I1100000
g1
(g5
S'\xb8\x1e\x85\xebQ\xb8\xce?'
p451
tp452
Rp453
g433
F0.0
tp454
a(I1110000
g1
(g5
S'\xb8\x1e\x85\xebQ\xb8\xce?'
p455
tp456
Rp457
g433
F0.0
tp458
a(I1120000
g1
(g5
S'\xb8\x1e\x85\xebQ\xb8\xce?'
p459
tp460
Rp461
g433
F0.0
tp462
a(I1130000
g1
(g5
S'\xb8\x1e\x85\xebQ\xb8\xce?'
p463
tp464
Rp465
g433
F0.0
tp466
a(I1140000
g1
(g5
S'\xb8\x1e\x85\xebQ\xb8\xce?'
p467
tp468
Rp469
g433
F0.0
tp470
a(I1150000
g1
(g5
S'\xb8\x1e\x85\xebQ\xb8\xce?'
p471
tp472
Rp473
g433
F0.0
tp474
a(I1160000
g1
(g5
S'\xb8\x1e\x85\xebQ\xb8\xce?'
p475
tp476
Rp477
g433
F0.0
tp478
a(I1170000
g1
(g5
S'\xa4p=\n\xd7\xa3\xd0?'
p479
tp480
Rp481
g1
(g5
S'\xa4p=\n\xd7\xa3\xd0?'
p482
tp483
Rp484
F0.0
tp485
a(I1180000
g1
(g5
S'\xa4p=\n\xd7\xa3\xd0?'
p486
tp487
Rp488
g484
F0.0
tp489
a(I1190000
g1
(g5
S')\\\x8f\xc2\xf5(\xcc?'
p490
tp491
Rp492
g484
F0.0
tp493
a(I1200000
g1
(g5
S')\\\x8f\xc2\xf5(\xcc?'
p494
tp495
Rp496
g484
F0.0
tp497
a(I1210000
g1
(g5
S')\\\x8f\xc2\xf5(\xcc?'
p498
tp499
Rp500
g484
F0.0
tp501
a(I1220000
g1
(g5
S'\xc3\xf5(\\\x8f\xc2\xc5?'
p502
tp503
Rp504
g484
F0.0
tp505
a(I1230000
g1
(g5
S'{\x14\xaeG\xe1z\xc4?'
p506
tp507
Rp508
g484
F0.0
tp509
a(I1240000
g1
(g5
S'{\x14\xaeG\xe1z\xc4?'
p510
tp511
Rp512
g484
F0.0
tp513
a(I1250000
g1
(g5
S'{\x14\xaeG\xe1z\xc4?'
p514
tp515
Rp516
g484
F0.0
tp517
a(I1260000
g1
(g5
S'\xc3\xf5(\\\x8f\xc2\xc5?'
p518
tp519
Rp520
g484
F0.0
tp521
a(I1270000
g1
(g5
S'\xc3\xf5(\\\x8f\xc2\xc5?'
p522
tp523
Rp524
g484
F0.0
tp525
a(I1280000
g1
(g5
S'\xc3\xf5(\\\x8f\xc2\xc5?'
p526
tp527
Rp528
g484
F0.0
tp529
a(I1290000
g1
(g5
S'\xc3\xf5(\\\x8f\xc2\xc5?'
p530
tp531
Rp532
g484
F0.0
tp533
a(I1300000
g1
(g5
S'\xc3\xf5(\\\x8f\xc2\xc5?'
p534
tp535
Rp536
g484
F0.0
tp537
a(I1310000
g1
(g5
S'\xecQ\xb8\x1e\x85\xeb\xc1?'
p538
tp539
Rp540
g484
F0.0
tp541
a(I1320000
g1
(g5
S'\xa4p=\n\xd7\xa3\xc0?'
p542
tp543
Rp544
g484
F0.0
tp545
a(I1330000
g1
(g5
S'\xecQ\xb8\x1e\x85\xeb\xc1?'
p546
tp547
Rp548
g484
F0.0
tp549
a(I1340000
g1
(g5
S'\xecQ\xb8\x1e\x85\xeb\xc1?'
p550
tp551
Rp552
g484
F0.0
tp553
a(I1350000
g1
(g5
S'\xa4p=\n\xd7\xa3\xc0?'
p554
tp555
Rp556
g484
F0.0
tp557
a(I1360000
g1
(g5
S'\xa4p=\n\xd7\xa3\xc0?'
p558
tp559
Rp560
g484
F0.0
tp561
a(I1370000
g1
(g5
S'\n\xd7\xa3p=\n\xb7?'
p562
tp563
Rp564
g484
F0.0
tp565
a(I1380000
g1
(g5
S'{\x14\xaeG\xe1z\xa4?'
p566
tp567
Rp568
g484
F0.0
tp569
a(I1390000
g1
(g5
S'\x9a\x99\x99\x99\x99\x99\xa9?'
p570
tp571
Rp572
g484
F0.0
tp573
a(I1400000
g1
(g5
S'\x9a\x99\x99\x99\x99\x99\xa9?'
p574
tp575
Rp576
g484
F0.0
tp577
a(I1410000
g1
(g5
S'\x9a\x99\x99\x99\x99\x99\xa9?'
p578
tp579
Rp580
g484
F0.0
tp581
a(I1420000
g1
(g5
S'\x9a\x99\x99\x99\x99\x99\xa9?'
p582
tp583
Rp584
g484
F0.0
tp585
a(I1430000
g1
(g5
S'\x9a\x99\x99\x99\x99\x99\xa9?'
p586
tp587
Rp588
g484
F0.0
tp589
a(I1440000
g1
(g5
S'\x9a\x99\x99\x99\x99\x99\xa9?'
p590
tp591
Rp592
g484
F0.0
tp593
a(I1450000
g1
(g5
S'\x9a\x99\x99\x99\x99\x99\xa9?'
p594
tp595
Rp596
g484
F0.0
tp597
a(I1460000
g1
(g5
S'\xb8\x1e\x85\xebQ\xb8\xae?'
p598
tp599
Rp600
g484
F1.0
tp601
a(I1470000
g1
(g5
S'\xb8\x1e\x85\xebQ\xb8\xae?'
p602
tp603
Rp604
g484
F0.0
tp605
a(I1480000
g1
(g5
S'\xb8\x1e\x85\xebQ\xb8\xae?'
p606
tp607
Rp608
g484
F0.0
tp609
a(I1490000
g1
(g5
S'\xb8\x1e\x85\xebQ\xb8\xae?'
p610
tp611
Rp612
g484
F0.0
tp613
a(I1500000
g1
(g5
S'{\x14\xaeG\xe1z\xa4?'
p614
tp615
Rp616
g484
F0.0
tp617
a(I1510000
g1
(g5
S'{\x14\xaeG\xe1z\xa4?'
p618
tp619
Rp620
g484
F0.0
tp621
a(I1520000
g1
(g5
S'{\x14\xaeG\xe1z\xa4?'
p622
tp623
Rp624
g484
F0.0
tp625
a(I1530000
g1
(g5
S'{\x14\xaeG\xe1z\xa4?'
p626
tp627
Rp628
g484
F0.0
tp629
a(I1540000
g1
(g5
S'{\x14\xaeG\xe1z\xa4?'
p630
tp631
Rp632
g484
F0.0
tp633
a(I1550000
g1
(g5
S'{\x14\xaeG\xe1z\xa4?'
p634
tp635
Rp636
g484
F0.0
tp637
a(I1560000
g1
(g5
S'{\x14\xaeG\xe1z\xa4?'
p638
tp639
Rp640
g484
F0.0
tp641
a(I1570000
g1
(g5
S'\x9a\x99\x99\x99\x99\x99\xa9?'
p642
tp643
Rp644
g484
F0.0
tp645
a(I1580000
g1
(g5
S'\x9a\x99\x99\x99\x99\x99\xa9?'
p646
tp647
Rp648
g484
F0.0
tp649
a(I1590000
g1
(g5
S'{\x14\xaeG\xe1z\xa4?'
p650
tp651
Rp652
g484
F0.0
tp653
a(I1600000
g1
(g5
S'{\x14\xaeG\xe1z\xa4?'
p654
tp655
Rp656
g484
F0.0
tp657
a(I1610000
g1
(g5
S'{\x14\xaeG\xe1z\xa4?'
p658
tp659
Rp660
g484
F0.0
tp661
a(I1620000
g1
(g5
S'{\x14\xaeG\xe1z\xa4?'
p662
tp663
Rp664
g484
F0.0
tp665
a(I1630000
g1
(g5
S'{\x14\xaeG\xe1z\xa4?'
p666
tp667
Rp668
g484
F0.0
tp669
a(I1640000
g1
(g5
S'{\x14\xaeG\xe1z\xa4?'
p670
tp671
Rp672
g484
F0.0
tp673
a(I1650000
g1
(g5
S'{\x14\xaeG\xe1z\xa4?'
p674
tp675
Rp676
g484
F0.0
tp677
a(I1660000
g1
(g5
S'\xb8\x1e\x85\xebQ\xb8\x9e?'
p678
tp679
Rp680
g484
F0.0
tp681
a(I1670000
g1
(g5
S'\xb8\x1e\x85\xebQ\xb8\x9e?'
p682
tp683
Rp684
g484
F0.0
tp685
a(I1680000
g1
(g5
S'\xb8\x1e\x85\xebQ\xb8\x9e?'
p686
tp687
Rp688
g484
F0.0
tp689
a(I1690000
g1
(g5
S'\xb8\x1e\x85\xebQ\xb8\x9e?'
p690
tp691
Rp692
g484
F0.0
tp693
a(I1700000
g1
(g5
S'\xb8\x1e\x85\xebQ\xb8\x9e?'
p694
tp695
Rp696
g484
F0.0
tp697
a(I1710000
g1
(g5
S'{\x14\xaeG\xe1z\xa4?'
p698
tp699
Rp700
g484
F0.0
tp701
a(I1720000
g1
(g5
S'\xb8\x1e\x85\xebQ\xb8\x9e?'
p702
tp703
Rp704
g484
F0.0
tp705
a(I1730000
g1
(g5
S'\xb8\x1e\x85\xebQ\xb8\x9e?'
p706
tp707
Rp708
g484
F0.0
tp709
a(I1740000
g1
(g5
S'\xb8\x1e\x85\xebQ\xb8\x9e?'
p710
tp711
Rp712
g484
F0.0
tp713
a(I1750000
g1
(g5
S'\x9a\x99\x99\x99\x99\x99\xa9?'
p714
tp715
Rp716
g484
F0.0
tp717
a(I1760000
g1
(g5
S'\x9a\x99\x99\x99\x99\x99\xa9?'
p718
tp719
Rp720
g484
F0.0
tp721
a(I1770000
g1
(g5
S'\x9a\x99\x99\x99\x99\x99\xa9?'
p722
tp723
Rp724
g484
F0.0
tp725
a(I1780000
g1
(g5
S'\x9a\x99\x99\x99\x99\x99\xa9?'
p726
tp727
Rp728
g484
F0.0
tp729
a(I1790000
g1
(g5
S'\x9a\x99\x99\x99\x99\x99\xa9?'
p730
tp731
Rp732
g484
F0.0
tp733
a(I1800000
g1
(g5
S'\x9a\x99\x99\x99\x99\x99\xa9?'
p734
tp735
Rp736
g484
F0.0
tp737
a(I1810000
g1
(g5
S'\x9a\x99\x99\x99\x99\x99\xa9?'
p738
tp739
Rp740
g484
F0.0
tp741
a(I1820000
g1
(g5
S'\x9a\x99\x99\x99\x99\x99\xa9?'
p742
tp743
Rp744
g484
F0.0
tp745
a(I1830000
g1
(g5
S'\xecQ\xb8\x1e\x85\xeb\xb1?'
p746
tp747
Rp748
g484
F0.0
tp749
a(I1840000
g1
(g5
S'\xecQ\xb8\x1e\x85\xeb\xb1?'
p750
tp751
Rp752
g484
F0.0
tp753
a(I1850000
g1
(g5
S'\xecQ\xb8\x1e\x85\xeb\xb1?'
p754
tp755
Rp756
g484
F0.0
tp757
a(I1860000
g1
(g5
S'\xecQ\xb8\x1e\x85\xeb\xb1?'
p758
tp759
Rp760
g484
F0.0
tp761
a(I1870000
g1
(g5
S'\xecQ\xb8\x1e\x85\xeb\xb1?'
p762
tp763
Rp764
g484
F0.0
tp765
a(I1880000
g1
(g5
S'\xecQ\xb8\x1e\x85\xeb\xb1?'
p766
tp767
Rp768
g484
F0.0
tp769
a(I1890000
g1
(g5
S'\xecQ\xb8\x1e\x85\xeb\xb1?'
p770
tp771
Rp772
g484
F0.0
tp773
a(I1900000
g1
(g5
S'\xb8\x1e\x85\xebQ\xb8\xae?'
p774
tp775
Rp776
g484
F0.0
tp777
a(I1910000
g1
(g5
S'\xecQ\xb8\x1e\x85\xeb\xb1?'
p778
tp779
Rp780
g484
F1.0
tp781
a(I1920000
g1
(g5
S'\xecQ\xb8\x1e\x85\xeb\xb1?'
p782
tp783
Rp784
g484
F0.0
tp785
a(I1930000
g1
(g5
S'\xecQ\xb8\x1e\x85\xeb\xb1?'
p786
tp787
Rp788
g484
F0.0
tp789
a(I1940000
g1
(g5
S'\xecQ\xb8\x1e\x85\xeb\xb1?'
p790
tp791
Rp792
g484
F0.0
tp793
a(I1950000
g1
(g5
S'\xecQ\xb8\x1e\x85\xeb\xb1?'
p794
tp795
Rp796
g484
F0.0
tp797
a(I1960000
g1
(g5
S'\xecQ\xb8\x1e\x85\xeb\xb1?'
p798
tp799
Rp800
g484
F0.0
tp801
a(I1970000
g1
(g5
S'{\x14\xaeG\xe1z\xb4?'
p802
tp803
Rp804
g484
F0.0
tp805
a(I1980000
g1
(g5
S'{\x14\xaeG\xe1z\xb4?'
p806
tp807
Rp808
g484
F0.0
tp809
a(I1990000
g1
(g5
S'\n\xd7\xa3p=\n\xb7?'
p810
tp811
Rp812
g484
F0.0
tp813
a(I2000000
g1
(g5
S'\n\xd7\xa3p=\n\xb7?'
p814
tp815
Rp816
g484
F0.0
tp817
a(I2010000
g1
(g5
S'\n\xd7\xa3p=\n\xb7?'
p818
tp819
Rp820
g484
F0.0
tp821
a(I2020000
g1
(g5
S'\x9a\x99\x99\x99\x99\x99\xb9?'
p822
tp823
Rp824
g484
F1.0
tp825
a(I2030000
g1
(g5
S'\x9a\x99\x99\x99\x99\x99\xb9?'
p826
tp827
Rp828
g484
F0.0
tp829
a(I2040000
g1
(g5
S'\n\xd7\xa3p=\n\xb7?'
p830
tp831
Rp832
g484
F0.0
tp833
a(I2050000
g1
(g5
S'\x9a\x99\x99\x99\x99\x99\xb9?'
p834
tp835
Rp836
g484
F1.0
tp837
a(I2060000
g1
(g5
S'\x9a\x99\x99\x99\x99\x99\xb9?'
p838
tp839
Rp840
g484
F0.0
tp841
a(I2070000
g1
(g5
S'\x9a\x99\x99\x99\x99\x99\xb9?'
p842
tp843
Rp844
g484
F0.0
tp845
a(I2080000
g1
(g5
S'{\x14\xaeG\xe1z\xb4?'
p846
tp847
Rp848
g484
F0.0
tp849
a(I2090000
g1
(g5
S'{\x14\xaeG\xe1z\xb4?'
p850
tp851
Rp852
g484
F0.0
tp853
a(I2100000
g1
(g5
S'{\x14\xaeG\xe1z\xb4?'
p854
tp855
Rp856
g484
F0.0
tp857
a(I2110000
g1
(g5
S'{\x14\xaeG\xe1z\xb4?'
p858
tp859
Rp860
g484
F0.0
tp861
a(I2120000
g1
(g5
S'{\x14\xaeG\xe1z\xb4?'
p862
tp863
Rp864
g484
F0.0
tp865
a(I2130000
g1
(g5
S'\xb8\x1e\x85\xebQ\xb8\xbe?'
p866
tp867
Rp868
g484
F0.0
tp869
a(I2140000
g1
(g5
S'\xb8\x1e\x85\xebQ\xb8\xbe?'
p870
tp871
Rp872
g484
F0.0
tp873
a(I2150000
g1
(g5
S'\xb8\x1e\x85\xebQ\xb8\xbe?'
p874
tp875
Rp876
g484
F0.0
tp877
a(I2160000
g1
(g5
S')\\\x8f\xc2\xf5(\xbc?'
p878
tp879
Rp880
g484
F1.0
tp881
a(I2170000
g1
(g5
S')\\\x8f\xc2\xf5(\xbc?'
p882
tp883
Rp884
g484
F0.0
tp885
a(I2180000
g1
(g5
S')\\\x8f\xc2\xf5(\xbc?'
p886
tp887
Rp888
g484
F0.0
tp889
a(I2190000
g1
(g5
S')\\\x8f\xc2\xf5(\xbc?'
p890
tp891
Rp892
g484
F0.0
tp893
a(I2200000
g1
(g5
S')\\\x8f\xc2\xf5(\xbc?'
p894
tp895
Rp896
g484
F0.0
tp897
a(I2210000
g1
(g5
S')\\\x8f\xc2\xf5(\xbc?'
p898
tp899
Rp900
g484
F0.0
tp901
a(I2220000
g1
(g5
S')\\\x8f\xc2\xf5(\xbc?'
p902
tp903
Rp904
g484
F0.0
tp905
a(I2230000
g1
(g5
S')\\\x8f\xc2\xf5(\xbc?'
p906
tp907
Rp908
g484
F0.0
tp909
a(I2240000
g1
(g5
S'\x9a\x99\x99\x99\x99\x99\xb9?'
p910
tp911
Rp912
g484
F0.0
tp913
a(I2250000
g1
(g5
S'\x9a\x99\x99\x99\x99\x99\xb9?'
p914
tp915
Rp916
g484
F0.0
tp917
a(I2260000
g1
(g5
S'\x9a\x99\x99\x99\x99\x99\xb9?'
p918
tp919
Rp920
g484
F0.0
tp921
a(I2270000
g1
(g5
S')\\\x8f\xc2\xf5(\xbc?'
p922
tp923
Rp924
g484
F0.0
tp925
a(I2280000
g1
(g5
S')\\\x8f\xc2\xf5(\xbc?'
p926
tp927
Rp928
g484
F0.0
tp929
a(I2290000
g1
(g5
S')\\\x8f\xc2\xf5(\xbc?'
p930
tp931
Rp932
g484
F0.0
tp933
a(I2300000
g1
(g5
S'\x9a\x99\x99\x99\x99\x99\xb9?'
p934
tp935
Rp936
g484
F0.0
tp937
a(I2310000
g1
(g5
S'\x9a\x99\x99\x99\x99\x99\xb9?'
p938
tp939
Rp940
g484
F0.0
tp941
a(I2320000
g1
(g5
S'\n\xd7\xa3p=\n\xb7?'
p942
tp943
Rp944
g484
F0.0
tp945
a(I2330000
g1
(g5
S'\n\xd7\xa3p=\n\xb7?'
p946
tp947
Rp948
g484
F0.0
tp949
a(I2340000
g1
(g5
S'\n\xd7\xa3p=\n\xb7?'
p950
tp951
Rp952
g484
F0.0
tp953
a(I2350000
g1
(g5
S'{\x14\xaeG\xe1z\xb4?'
p954
tp955
Rp956
g484
F0.0
tp957
a(I2360000
g1
(g5
S'\n\xd7\xa3p=\n\xb7?'
p958
tp959
Rp960
g484
F1.0
tp961
a(I2370000
g1
(g5
S'\x9a\x99\x99\x99\x99\x99\xb9?'
p962
tp963
Rp964
g484
F0.0
tp965
a(I2380000
g1
(g5
S'\x9a\x99\x99\x99\x99\x99\xb9?'
p966
tp967
Rp968
g484
F0.0
tp969
a(I2390000
g1
(g5
S'\n\xd7\xa3p=\n\xb7?'
p970
tp971
Rp972
g484
F0.0
tp973
a(I2400000
g1
(g5
S'\n\xd7\xa3p=\n\xb7?'
p974
tp975
Rp976
g484
F0.0
tp977
a(I2410000
g1
(g5
S'\x9a\x99\x99\x99\x99\x99\xb9?'
p978
tp979
Rp980
g484
F0.0
tp981
a(I2420000
g1
(g5
S'\x9a\x99\x99\x99\x99\x99\xb9?'
p982
tp983
Rp984
g484
F0.0
tp985
a(I2430000
g1
(g5
S'\x9a\x99\x99\x99\x99\x99\xb9?'
p986
tp987
Rp988
g484
F0.0
tp989
a(I2440000
g1
(g5
S'\x9a\x99\x99\x99\x99\x99\xb9?'
p990
tp991
Rp992
g484
F0.0
tp993
a(I2450000
g1
(g5
S'\x9a\x99\x99\x99\x99\x99\xb9?'
p994
tp995
Rp996
g484
F0.0
tp997
a(I2460000
g1
(g5
S'\x9a\x99\x99\x99\x99\x99\xa9?'
p998
tp999
Rp1000
g484
F0.0
tp1001
a(I2470000
g1
(g5
S'\x9a\x99\x99\x99\x99\x99\xa9?'
p1002
tp1003
Rp1004
g484
F0.0
tp1005
a(I2480000
g1
(g5
S'\x9a\x99\x99\x99\x99\x99\xa9?'
p1006
tp1007
Rp1008
g484
F0.0
tp1009
a(I2490000
g1
(g5
S'\xb8\x1e\x85\xebQ\xb8\xae?'
p1010
tp1011
Rp1012
g484
F0.0
tp1013
a(I2500000
g1
(g5
S'\x9a\x99\x99\x99\x99\x99\xa9?'
p1014
tp1015
Rp1016
g484
F0.0
tp1017
a(I2510000
g1
(g5
S'\x9a\x99\x99\x99\x99\x99\xa9?'
p1018
tp1019
Rp1020
g484
F0.0
tp1021
a(I2520000
g1
(g5
S'\x9a\x99\x99\x99\x99\x99\xa9?'
p1022
tp1023
Rp1024
g484
F0.0
tp1025
a(I2530000
g1
(g5
S'\x9a\x99\x99\x99\x99\x99\xa9?'
p1026
tp1027
Rp1028
g484
F0.0
tp1029
a(I2540000
g1
(g5
S'\x9a\x99\x99\x99\x99\x99\xa9?'
p1030
tp1031
Rp1032
g484
F0.0
tp1033
a(I2550000
g1
(g5
S'\x9a\x99\x99\x99\x99\x99\xa9?'
p1034
tp1035
Rp1036
g484
F0.0
tp1037
a(I2560000
g1
(g5
S'\xb8\x1e\x85\xebQ\xb8\xae?'
p1038
tp1039
Rp1040
g484
F0.0
tp1041
a(I2570000
g1
(g5
S'\xb8\x1e\x85\xebQ\xb8\xae?'
p1042
tp1043
Rp1044
g484
F0.0
tp1045
a(I2580000
g1
(g5
S'\xb8\x1e\x85\xebQ\xb8\xae?'
p1046
tp1047
Rp1048
g484
F0.0
tp1049
a(I2590000
g1
(g5
S'\xecQ\xb8\x1e\x85\xeb\xb1?'
p1050
tp1051
Rp1052
g484
F1.0
tp1053
a(I2600000
g1
(g5
S'\xb8\x1e\x85\xebQ\xb8\xae?'
p1054
tp1055
Rp1056
g484
F0.0
tp1057
a(I2610000
g1
(g5
S'\xb8\x1e\x85\xebQ\xb8\xae?'
p1058
tp1059
Rp1060
g484
F0.0
tp1061
a(I2620000
g1
(g5
S'\xb8\x1e\x85\xebQ\xb8\xae?'
p1062
tp1063
Rp1064
g484
F0.0
tp1065
a(I2630000
g1
(g5
S'\xb8\x1e\x85\xebQ\xb8\xae?'
p1066
tp1067
Rp1068
g484
F0.0
tp1069
a(I2640000
g1
(g5
S'\xb8\x1e\x85\xebQ\xb8\xae?'
p1070
tp1071
Rp1072
g484
F0.0
tp1073
a(I2650000
g1
(g5
S'\xecQ\xb8\x1e\x85\xeb\xb1?'
p1074
tp1075
Rp1076
g484
F0.0
tp1077
a(I2660000
g1
(g5
S'\xecQ\xb8\x1e\x85\xeb\xb1?'
p1078
tp1079
Rp1080
g484
F0.0
tp1081
a(I2670000
g1
(g5
S'\xecQ\xb8\x1e\x85\xeb\xb1?'
p1082
tp1083
Rp1084
g484
F0.0
tp1085
a(I2680000
g1
(g5
S'\xecQ\xb8\x1e\x85\xeb\xb1?'
p1086
tp1087
Rp1088
g484
F0.0
tp1089
a(I2690000
g1
(g5
S'\xecQ\xb8\x1e\x85\xeb\xb1?'
p1090
tp1091
Rp1092
g484
F0.0
tp1093
a(I2700000
g1
(g5
S'\x9a\x99\x99\x99\x99\x99\xa9?'
p1094
tp1095
Rp1096
g484
F0.0
tp1097
a(I2710000
g1
(g5
S'\x9a\x99\x99\x99\x99\x99\xa9?'
p1098
tp1099
Rp1100
g484
F0.0
tp1101
a(I2720000
g1
(g5
S'\x9a\x99\x99\x99\x99\x99\xa9?'
p1102
tp1103
Rp1104
g484
F0.0
tp1105
a(I2730000
g1
(g5
S'\x9a\x99\x99\x99\x99\x99\xa9?'
p1106
tp1107
Rp1108
g484
F0.0
tp1109
a(I2740000
g1
(g5
S'{\x14\xaeG\xe1z\xa4?'
p1110
tp1111
Rp1112
g484
F0.0
tp1113
a(I2750000
g1
(g5
S'{\x14\xaeG\xe1z\xa4?'
p1114
tp1115
Rp1116
g484
F0.0
tp1117
a(I2760000
g1
(g5
S'{\x14\xaeG\xe1z\xa4?'
p1118
tp1119
Rp1120
g484
F0.0
tp1121
a(I2770000
g1
(g5
S'{\x14\xaeG\xe1z\xa4?'
p1122
tp1123
Rp1124
g484
F0.0
tp1125
a(I2780000
g1
(g5
S'{\x14\xaeG\xe1z\xa4?'
p1126
tp1127
Rp1128
g484
F0.0
tp1129
a(I2790000
g1
(g5
S'{\x14\xaeG\xe1z\xa4?'
p1130
tp1131
Rp1132
g484
F0.0
tp1133
a(I2800000
g1
(g5
S'\x9a\x99\x99\x99\x99\x99\xa9?'
p1134
tp1135
Rp1136
g484
F1.0
tp1137
a(I2810000
g1
(g5
S'\x9a\x99\x99\x99\x99\x99\xa9?'
p1138
tp1139
Rp1140
g484
F0.0
tp1141
a(I2820000
g1
(g5
S'{\x14\xaeG\xe1z\xa4?'
p1142
tp1143
Rp1144
g484
F0.0
tp1145
a(I2830000
g1
(g5
S'{\x14\xaeG\xe1z\xa4?'
p1146
tp1147
Rp1148
g484
F0.0
tp1149
a(I2840000
g1
(g5
S'{\x14\xaeG\xe1z\xa4?'
p1150
tp1151
Rp1152
g484
F0.0
tp1153
a(I2850000
g1
(g5
S'{\x14\xaeG\xe1z\xa4?'
p1154
tp1155
Rp1156
g484
F0.0
tp1157
a(I2860000
g1
(g5
S'{\x14\xaeG\xe1z\xa4?'
p1158
tp1159
Rp1160
g484
F0.0
tp1161
a(I2870000
g1
(g5
S'{\x14\xaeG\xe1z\xa4?'
p1162
tp1163
Rp1164
g484
F0.0
tp1165
a(I2880000
g1
(g5
S'{\x14\xaeG\xe1z\xa4?'
p1166
tp1167
Rp1168
g484
F0.0
tp1169
a(I2890000
g1
(g5
S'\xb8\x1e\x85\xebQ\xb8\x9e?'
p1170
tp1171
Rp1172
g484
F0.0
tp1173
a(I2900000
g1
(g5
S'{\x14\xaeG\xe1z\xa4?'
p1174
tp1175
Rp1176
g484
F1.0
tp1177
a(I2910000
g1
(g5
S'{\x14\xaeG\xe1z\xa4?'
p1178
tp1179
Rp1180
g484
F0.0
tp1181
a(I2920000
g1
(g5
S'{\x14\xaeG\xe1z\xa4?'
p1182
tp1183
Rp1184
g484
F0.0
tp1185
a(I2930000
g1
(g5
S'\xb8\x1e\x85\xebQ\xb8\x9e?'
p1186
tp1187
Rp1188
g484
F0.0
tp1189
a(I2940000
g1
(g5
S'{\x14\xaeG\xe1z\xa4?'
p1190
tp1191
Rp1192
g484
F0.0
tp1193
a(I2950000
g1
(g5
S'\x9a\x99\x99\x99\x99\x99\xa9?'
p1194
tp1195
Rp1196
g484
F1.0
tp1197
a(I2960000
g1
(g5
S'\x9a\x99\x99\x99\x99\x99\xa9?'
p1198
tp1199
Rp1200
g484
F0.0
tp1201
a(I2970000
g1
(g5
S'\x9a\x99\x99\x99\x99\x99\xa9?'
p1202
tp1203
Rp1204
g484
F0.0
tp1205
a(I2980000
g1
(g5
S'{\x14\xaeG\xe1z\xa4?'
p1206
tp1207
Rp1208
g484
F0.0
tp1209
a(I2990000
g1
(g5
S'{\x14\xaeG\xe1z\xa4?'
p1210
tp1211
Rp1212
g484
F0.0
tp1213
a(I3000000
g1
(g5
S'{\x14\xaeG\xe1z\xa4?'
p1214
tp1215
Rp1216
g484
F0.0
tp1217
a(I3010000
g1
(g5
S'{\x14\xaeG\xe1z\xa4?'
p1218
tp1219
Rp1220
g484
F0.0
tp1221
a(I3020000
g1
(g5
S'{\x14\xaeG\xe1z\xa4?'
p1222
tp1223
Rp1224
g484
F0.0
tp1225
a(I3030000
g1
(g5
S'{\x14\xaeG\xe1z\xa4?'
p1226
tp1227
Rp1228
g484
F0.0
tp1229
a(I3040000
g1
(g5
S'{\x14\xaeG\xe1z\xa4?'
p1230
tp1231
Rp1232
g484
F0.0
tp1233
a(I3050000
g1
(g5
S'{\x14\xaeG\xe1z\xa4?'
p1234
tp1235
Rp1236
g484
F0.0
tp1237
a(I3060000
g1
(g5
S'{\x14\xaeG\xe1z\xa4?'
p1238
tp1239
Rp1240
g484
F0.0
tp1241
a(I3070000
g1
(g5
S'{\x14\xaeG\xe1z\xa4?'
p1242
tp1243
Rp1244
g484
F0.0
tp1245
a(I3080000
g1
(g5
S'{\x14\xaeG\xe1z\xa4?'
p1246
tp1247
Rp1248
g484
F0.0
tp1249
a(I3090000
g1
(g5
S'{\x14\xaeG\xe1z\xa4?'
p1250
tp1251
Rp1252
g484
F0.0
tp1253
a(I3100000
g1
(g5
S'{\x14\xaeG\xe1z\xa4?'
p1254
tp1255
Rp1256
g484
F0.0
tp1257
a(I3110000
g1
(g5
S'\xb8\x1e\x85\xebQ\xb8\xae?'
p1258
tp1259
Rp1260
g484
F2.0
tp1261
a(I3120000
g1
(g5
S'\xb8\x1e\x85\xebQ\xb8\xae?'
p1262
tp1263
Rp1264
g484
F0.0
tp1265
a(I3130000
g1
(g5
S'\x9a\x99\x99\x99\x99\x99\xa9?'
p1266
tp1267
Rp1268
g484
F0.0
tp1269
a(I3140000
g1
(g5
S'\x9a\x99\x99\x99\x99\x99\xa9?'
p1270
tp1271
Rp1272
g484
F0.0
tp1273
a(I3150000
g1
(g5
S'\x9a\x99\x99\x99\x99\x99\xa9?'
p1274
tp1275
Rp1276
g484
F0.0
tp1277
a(I3160000
g1
(g5
S'\x9a\x99\x99\x99\x99\x99\xa9?'
p1278
tp1279
Rp1280
g484
F0.0
tp1281
a(I3170000
g1
(g5
S'\x9a\x99\x99\x99\x99\x99\xa9?'
p1282
tp1283
Rp1284
g484
F0.0
tp1285
a(I3180000
g1
(g5
S'\x9a\x99\x99\x99\x99\x99\xa9?'
p1286
tp1287
Rp1288
g484
F0.0
tp1289
a(I3190000
g1
(g5
S'\x9a\x99\x99\x99\x99\x99\xa9?'
p1290
tp1291
Rp1292
g484
F0.0
tp1293
a(I3200000
g1
(g5
S'\x9a\x99\x99\x99\x99\x99\xa9?'
p1294
tp1295
Rp1296
g484
F0.0
tp1297
a(I3210000
g1
(g5
S'\x9a\x99\x99\x99\x99\x99\xa9?'
p1298
tp1299
Rp1300
g484
F0.0
tp1301
a(I3220000
g1
(g5
S'\xecQ\xb8\x1e\x85\xeb\xb1?'
p1302
tp1303
Rp1304
g484
F0.0
tp1305
a(I3230000
g1
(g5
S'\xb8\x1e\x85\xebQ\xb8\xae?'
p1306
tp1307
Rp1308
g484
F0.0
tp1309
a(I3240000
g1
(g5
S'\xb8\x1e\x85\xebQ\xb8\xae?'
p1310
tp1311
Rp1312
g484
F0.0
tp1313
a(I3250000
g1
(g5
S'\xb8\x1e\x85\xebQ\xb8\xae?'
p1314
tp1315
Rp1316
g484
F0.0
tp1317
a(I3260000
g1
(g5
S'\xb8\x1e\x85\xebQ\xb8\xae?'
p1318
tp1319
Rp1320
g484
F0.0
tp1321
a(I3270000
g1
(g5
S'\x9a\x99\x99\x99\x99\x99\xa9?'
p1322
tp1323
Rp1324
g484
F0.0
tp1325
a(I3280000
g1
(g5
S'{\x14\xaeG\xe1z\xa4?'
p1326
tp1327
Rp1328
g484
F0.0
tp1329
a(I3290000
g1
(g5
S'{\x14\xaeG\xe1z\xa4?'
p1330
tp1331
Rp1332
g484
F0.0
tp1333
a(I3300000
g1
(g5
S'\x9a\x99\x99\x99\x99\x99\xa9?'
p1334
tp1335
Rp1336
g484
F1.0
tp1337
a(I3310000
g1
(g5
S'\x9a\x99\x99\x99\x99\x99\xa9?'
p1338
tp1339
Rp1340
g484
F0.0
tp1341
a(I3320000
g1
(g5
S'\x9a\x99\x99\x99\x99\x99\xa9?'
p1342
tp1343
Rp1344
g484
F0.0
tp1345
a(I3330000
g1
(g5
S'\x9a\x99\x99\x99\x99\x99\xa9?'
p1346
tp1347
Rp1348
g484
F0.0
tp1349
a(I3340000
g1
(g5
S'\x9a\x99\x99\x99\x99\x99\xa9?'
p1350
tp1351
Rp1352
g484
F0.0
tp1353
a(I3350000
g1
(g5
S'\x9a\x99\x99\x99\x99\x99\xa9?'
p1354
tp1355
Rp1356
g484
F0.0
tp1357
a(I3360000
g1
(g5
S'\x9a\x99\x99\x99\x99\x99\xa9?'
p1358
tp1359
Rp1360
g484
F0.0
tp1361
a(I3370000
g1
(g5
S'\x9a\x99\x99\x99\x99\x99\xa9?'
p1362
tp1363
Rp1364
g484
F0.0
tp1365
a(I3380000
g1
(g5
S'\x9a\x99\x99\x99\x99\x99\xa9?'
p1366
tp1367
Rp1368
g484
F0.0
tp1369
a(I3390000
g1
(g5
S'\x9a\x99\x99\x99\x99\x99\xa9?'
p1370
tp1371
Rp1372
g484
F0.0
tp1373
a(I3400000
g1
(g5
S'\x9a\x99\x99\x99\x99\x99\xa9?'
p1374
tp1375
Rp1376
g484
F0.0
tp1377
a(I3410000
g1
(g5
S'\x9a\x99\x99\x99\x99\x99\xa9?'
p1378
tp1379
Rp1380
g484
F0.0
tp1381
a(I3420000
g1
(g5
S'\x9a\x99\x99\x99\x99\x99\xa9?'
p1382
tp1383
Rp1384
g484
F0.0
tp1385
a(I3430000
g1
(g5
S'\x9a\x99\x99\x99\x99\x99\xa9?'
p1386
tp1387
Rp1388
g484
F0.0
tp1389
a(I3440000
g1
(g5
S'\x9a\x99\x99\x99\x99\x99\xa9?'
p1390
tp1391
Rp1392
g484
F0.0
tp1393
a(I3450000
g1
(g5
S'\xb8\x1e\x85\xebQ\xb8\x9e?'
p1394
tp1395
Rp1396
g484
F0.0
tp1397
a(I3460000
g1
(g5
S'\xb8\x1e\x85\xebQ\xb8\x9e?'
p1398
tp1399
Rp1400
g484
F0.0
tp1401
a(I3470000
g1
(g5
S'\xb8\x1e\x85\xebQ\xb8\x9e?'
p1402
tp1403
Rp1404
g484
F0.0
tp1405
a(I3480000
g1
(g5
S'\xb8\x1e\x85\xebQ\xb8\x9e?'
p1406
tp1407
Rp1408
g484
F0.0
tp1409
a(I3490000
g1
(g5
S'\xb8\x1e\x85\xebQ\xb8\x9e?'
p1410
tp1411
Rp1412
g484
F0.0
tp1413
a(I3500000
g1
(g5
S'\xb8\x1e\x85\xebQ\xb8\x9e?'
p1414
tp1415
Rp1416
g484
F0.0
tp1417
a(I3510000
g1
(g5
S'\xb8\x1e\x85\xebQ\xb8\x9e?'
p1418
tp1419
Rp1420
g484
F0.0
tp1421
a(I3520000
g1
(g5
S'\xb8\x1e\x85\xebQ\xb8\x9e?'
p1422
tp1423
Rp1424
g484
F0.0
tp1425
a(I3530000
g1
(g5
S'\xb8\x1e\x85\xebQ\xb8\x9e?'
p1426
tp1427
Rp1428
g484
F0.0
tp1429
a(I3540000
g1
(g5
S'\xb8\x1e\x85\xebQ\xb8\x9e?'
p1430
tp1431
Rp1432
g484
F0.0
tp1433
a(I3550000
g1
(g5
S'{\x14\xaeG\xe1z\x84?'
p1434
tp1435
Rp1436
g484
F0.0
tp1437
a(I3560000
g1
(g5
S'{\x14\xaeG\xe1z\x84?'
p1438
tp1439
Rp1440
g484
F0.0
tp1441
a(I3570000
g1
(g5
S'{\x14\xaeG\xe1z\x84?'
p1442
tp1443
Rp1444
g484
F0.0
tp1445
a(I3580000
g1
(g5
S'{\x14\xaeG\xe1z\x84?'
p1446
tp1447
Rp1448
g484
F0.0
tp1449
a(I3590000
g1
(g5
S'{\x14\xaeG\xe1z\x84?'
p1450
tp1451
Rp1452
g484
F0.0
tp1453
a(I3600000
g1
(g5
S'{\x14\xaeG\xe1z\x84?'
p1454
tp1455
Rp1456
g484
F0.0
tp1457
a(I3610000
g1
(g5
S'\xb8\x1e\x85\xebQ\xb8\x9e?'
p1458
tp1459
Rp1460
g484
F0.0
tp1461
a(I3620000
g1
(g5
S'\xb8\x1e\x85\xebQ\xb8\x9e?'
p1462
tp1463
Rp1464
g484
F0.0
tp1465
a(I3630000
g1
(g5
S'\xb8\x1e\x85\xebQ\xb8\x9e?'
p1466
tp1467
Rp1468
g484
F0.0
tp1469
a(I3640000
g1
(g5
S'{\x14\xaeG\xe1z\x94?'
p1470
tp1471
Rp1472
g484
F0.0
tp1473
a(I3650000
g1
(g5
S'{\x14\xaeG\xe1z\x94?'
p1474
tp1475
Rp1476
g484
F0.0
tp1477
a(I3660000
g1
(g5
S'{\x14\xaeG\xe1z\x94?'
p1478
tp1479
Rp1480
g484
F0.0
tp1481
a(I3670000
g1
(g5
S'{\x14\xaeG\xe1z\x94?'
p1482
tp1483
Rp1484
g484
F0.0
tp1485
a(I3680000
g1
(g5
S'{\x14\xaeG\xe1z\x94?'
p1486
tp1487
Rp1488
g484
F0.0
tp1489
a(I3690000
g1
(g5
S'{\x14\xaeG\xe1z\x94?'
p1490
tp1491
Rp1492
g484
F0.0
tp1493
a(I3700000
g1
(g5
S'{\x14\xaeG\xe1z\x94?'
p1494
tp1495
Rp1496
g484
F0.0
tp1497
a(I3710000
g1
(g5
S'{\x14\xaeG\xe1z\x94?'
p1498
tp1499
Rp1500
g484
F0.0
tp1501
a(I3720000
g1
(g5
S'{\x14\xaeG\xe1z\x94?'
p1502
tp1503
Rp1504
g484
F0.0
tp1505
a(I3730000
g1
(g5
S'{\x14\xaeG\xe1z\x94?'
p1506
tp1507
Rp1508
g484
F0.0
tp1509
a(I3740000
g1
(g5
S'{\x14\xaeG\xe1z\x94?'
p1510
tp1511
Rp1512
g484
F0.0
tp1513
a(I3750000
g1
(g5
S'{\x14\xaeG\xe1z\x94?'
p1514
tp1515
Rp1516
g484
F0.0
tp1517
a(I3760000
g1
(g5
S'{\x14\xaeG\xe1z\x94?'
p1518
tp1519
Rp1520
g484
F0.0
tp1521
a(I3770000
g1
(g5
S'{\x14\xaeG\xe1z\x94?'
p1522
tp1523
Rp1524
g484
F0.0
tp1525
a(I3780000
g1
(g5
S'{\x14\xaeG\xe1z\x94?'
p1526
tp1527
Rp1528
g484
F0.0
tp1529
a(I3790000
g1
(g5
S'{\x14\xaeG\xe1z\x94?'
p1530
tp1531
Rp1532
g484
F0.0
tp1533
a(I3800000
g1
(g5
S'{\x14\xaeG\xe1z\x94?'
p1534
tp1535
Rp1536
g484
F0.0
tp1537
a(I3810000
g1
(g5
S'{\x14\xaeG\xe1z\x94?'
p1538
tp1539
Rp1540
g484
F0.0
tp1541
a(I3820000
g1
(g5
S'{\x14\xaeG\xe1z\x94?'
p1542
tp1543
Rp1544
g484
F0.0
tp1545
a(I3830000
g1
(g5
S'{\x14\xaeG\xe1z\x94?'
p1546
tp1547
Rp1548
g484
F0.0
tp1549
a(I3840000
g1
(g5
S'{\x14\xaeG\xe1z\x94?'
p1550
tp1551
Rp1552
g484
F0.0
tp1553
a(I3850000
g1
(g5
S'{\x14\xaeG\xe1z\x94?'
p1554
tp1555
Rp1556
g484
F0.0
tp1557
a(I3860000
g1
(g5
S'{\x14\xaeG\xe1z\x94?'
p1558
tp1559
Rp1560
g484
F0.0
tp1561
a(I3870000
g1
(g5
S'{\x14\xaeG\xe1z\x94?'
p1562
tp1563
Rp1564
g484
F0.0
tp1565
a(I3880000
g1
(g5
S'{\x14\xaeG\xe1z\x94?'
p1566
tp1567
Rp1568
g484
F0.0
tp1569
a(I3890000
g1
(g5
S'{\x14\xaeG\xe1z\x94?'
p1570
tp1571
Rp1572
g484
F0.0
tp1573
a(I3900000
g1
(g5
S'{\x14\xaeG\xe1z\x94?'
p1574
tp1575
Rp1576
g484
F0.0
tp1577
a(I3910000
g1
(g5
S'{\x14\xaeG\xe1z\x94?'
p1578
tp1579
Rp1580
g484
F0.0
tp1581
a(I3920000
g1
(g5
S'{\x14\xaeG\xe1z\x94?'
p1582
tp1583
Rp1584
g484
F0.0
tp1585
a(I3930000
g1
(g5
S'{\x14\xaeG\xe1z\x94?'
p1586
tp1587
Rp1588
g484
F0.0
tp1589
a(I3940000
g1
(g5
S'{\x14\xaeG\xe1z\x94?'
p1590
tp1591
Rp1592
g484
F2.0
tp1593
a(I3950000
g1
(g5
S'{\x14\xaeG\xe1z\x94?'
p1594
tp1595
Rp1596
g484
F0.0
tp1597
a(I3960000
g1
(g5
S'{\x14\xaeG\xe1z\x94?'
p1598
tp1599
Rp1600
g484
F0.0
tp1601
a(I3970000
g1
(g5
S'{\x14\xaeG\xe1z\x94?'
p1602
tp1603
Rp1604
g484
F0.0
tp1605
a(I3980000
g1
(g5
S'\xb8\x1e\x85\xebQ\xb8\x9e?'
p1606
tp1607
Rp1608
g484
F0.0
tp1609
a(I3990000
g1
(g5
S'\xb8\x1e\x85\xebQ\xb8\x9e?'
p1610
tp1611
Rp1612
g484
F0.0
tp1613
a(I4000000
g1
(g5
S'\xb8\x1e\x85\xebQ\xb8\x9e?'
p1614
tp1615
Rp1616
g484
F0.0
tp1617
a(I4010000
g1
(g5
S'\xb8\x1e\x85\xebQ\xb8\x9e?'
p1618
tp1619
Rp1620
g484
F0.0
tp1621
a(I4020000
g1
(g5
S'\xb8\x1e\x85\xebQ\xb8\x9e?'
p1622
tp1623
Rp1624
g484
F0.0
tp1625
a(I4030000
g1
(g5
S'\xb8\x1e\x85\xebQ\xb8\x9e?'
p1626
tp1627
Rp1628
g484
F0.0
tp1629
a(I4040000
g1
(g5
S'\xb8\x1e\x85\xebQ\xb8\x9e?'
p1630
tp1631
Rp1632
g484
F0.0
tp1633
a(I4050000
g1
(g5
S'\xb8\x1e\x85\xebQ\xb8\x9e?'
p1634
tp1635
Rp1636
g484
F0.0
tp1637
a(I4060000
g1
(g5
S'\xb8\x1e\x85\xebQ\xb8\x9e?'
p1638
tp1639
Rp1640
g484
F0.0
tp1641
a(I4070000
g1
(g5
S'\xb8\x1e\x85\xebQ\xb8\x9e?'
p1642
tp1643
Rp1644
g484
F0.0
tp1645
a(I4080000
g1
(g5
S'\xb8\x1e\x85\xebQ\xb8\x9e?'
p1646
tp1647
Rp1648
g484
F0.0
tp1649
a(I4090000
g1
(g5
S'\xb8\x1e\x85\xebQ\xb8\x9e?'
p1650
tp1651
Rp1652
g484
F0.0
tp1653
a(I4100000
g1
(g5
S'\xb8\x1e\x85\xebQ\xb8\x9e?'
p1654
tp1655
Rp1656
g484
F0.0
tp1657
a(I4110000
g1
(g5
S'\xb8\x1e\x85\xebQ\xb8\x9e?'
p1658
tp1659
Rp1660
g484
F0.0
tp1661
a(I4120000
g1
(g5
S'\xb8\x1e\x85\xebQ\xb8\x9e?'
p1662
tp1663
Rp1664
g484
F0.0
tp1665
a(I4130000
g1
(g5
S'\xb8\x1e\x85\xebQ\xb8\x9e?'
p1666
tp1667
Rp1668
g484
F0.0
tp1669
a(I4140000
g1
(g5
S'\xb8\x1e\x85\xebQ\xb8\x9e?'
p1670
tp1671
Rp1672
g484
F0.0
tp1673
a(I4150000
g1
(g5
S'\xb8\x1e\x85\xebQ\xb8\x9e?'
p1674
tp1675
Rp1676
g484
F0.0
tp1677
a(I4160000
g1
(g5
S'\xb8\x1e\x85\xebQ\xb8\x9e?'
p1678
tp1679
Rp1680
g484
F0.0
tp1681
a(I4170000
g1
(g5
S'\xb8\x1e\x85\xebQ\xb8\x9e?'
p1682
tp1683
Rp1684
g484
F0.0
tp1685
a(I4180000
g1
(g5
S'\xb8\x1e\x85\xebQ\xb8\x9e?'
p1686
tp1687
Rp1688
g484
F0.0
tp1689
a(I4190000
g1
(g5
S'\xb8\x1e\x85\xebQ\xb8\x9e?'
p1690
tp1691
Rp1692
g484
F0.0
tp1693
a(I4200000
g1
(g5
S'\xb8\x1e\x85\xebQ\xb8\x9e?'
p1694
tp1695
Rp1696
g484
F0.0
tp1697
a(I4210000
g1
(g5
S'\xb8\x1e\x85\xebQ\xb8\x9e?'
p1698
tp1699
Rp1700
g484
F0.0
tp1701
a(I4220000
g1
(g5
S'\xb8\x1e\x85\xebQ\xb8\x9e?'
p1702
tp1703
Rp1704
g484
F0.0
tp1705
a(I4230000
g1
(g5
S'\xb8\x1e\x85\xebQ\xb8\x9e?'
p1706
tp1707
Rp1708
g484
F0.0
tp1709
a(I4240000
g1
(g5
S'\xb8\x1e\x85\xebQ\xb8\x9e?'
p1710
tp1711
Rp1712
g484
F0.0
tp1713
a(I4250000
g1
(g5
S'\xb8\x1e\x85\xebQ\xb8\x9e?'
p1714
tp1715
Rp1716
g484
F0.0
tp1717
a(I4260000
g1
(g5
S'\xb8\x1e\x85\xebQ\xb8\x9e?'
p1718
tp1719
Rp1720
g484
F0.0
tp1721
a(I4270000
g1
(g5
S'{\x14\xaeG\xe1z\x84?'
p1722
tp1723
Rp1724
g484
F0.0
tp1725
a(I4280000
g1
(g5
S'{\x14\xaeG\xe1z\x84?'
p1726
tp1727
Rp1728
g484
F0.0
tp1729
a(I4290000
g1
(g5
S'{\x14\xaeG\xe1z\x84?'
p1730
tp1731
Rp1732
g484
F0.0
tp1733
a(I4300000
g1
(g5
S'{\x14\xaeG\xe1z\x84?'
p1734
tp1735
Rp1736
g484
F0.0
tp1737
a(I4310000
g1
(g5
S'\x00\x00\x00\x00\x00\x00\x00\x00'
p1738
tp1739
Rp1740
g484
F0.0
tp1741
a(I4320000
g1
(g5
S'\x00\x00\x00\x00\x00\x00\x00\x00'
p1742
tp1743
Rp1744
g484
F0.0
tp1745
a(I4330000
g1
(g5
S'\x00\x00\x00\x00\x00\x00\x00\x00'
p1746
tp1747
Rp1748
g484
F0.0
tp1749
a(I4340000
g1
(g5
S'\x00\x00\x00\x00\x00\x00\x00\x00'
p1750
tp1751
Rp1752
g484
F0.0
tp1753
a(I4350000
g1
(g5
S'\x00\x00\x00\x00\x00\x00\x00\x00'
p1754
tp1755
Rp1756
g484
F0.0
tp1757
a(I4360000
g1
(g5
S'\x00\x00\x00\x00\x00\x00\x00\x00'
p1758
tp1759
Rp1760
g484
F0.0
tp1761
a(I4370000
g1
(g5
S'\x00\x00\x00\x00\x00\x00\x00\x00'
p1762
tp1763
Rp1764
g484
F0.0
tp1765
a(I4380000
g1
(g5
S'\x00\x00\x00\x00\x00\x00\x00\x00'
p1766
tp1767
Rp1768
g484
F0.0
tp1769
a(I4390000
g1
(g5
S'\x00\x00\x00\x00\x00\x00\x00\x00'
p1770
tp1771
Rp1772
g484
F0.0
tp1773
a(I4400000
g1
(g5
S'\x00\x00\x00\x00\x00\x00\x00\x00'
p1774
tp1775
Rp1776
g484
F0.0
tp1777
a(I4410000
g1
(g5
S'\x00\x00\x00\x00\x00\x00\x00\x00'
p1778
tp1779
Rp1780
g484
F0.0
tp1781
a(I4420000
g1
(g5
S'\x00\x00\x00\x00\x00\x00\x00\x00'
p1782
tp1783
Rp1784
g484
F0.0
tp1785
a(I4430000
g1
(g5
S'\x00\x00\x00\x00\x00\x00\x00\x00'
p1786
tp1787
Rp1788
g484
F0.0
tp1789
a(I4440000
g1
(g5
S'\x00\x00\x00\x00\x00\x00\x00\x00'
p1790
tp1791
Rp1792
g484
F0.0
tp1793
a(I4450000
g1
(g5
S'\x00\x00\x00\x00\x00\x00\x00\x00'
p1794
tp1795
Rp1796
g484
F0.0
tp1797
a(I4460000
g1
(g5
S'\x00\x00\x00\x00\x00\x00\x00\x00'
p1798
tp1799
Rp1800
g484
F0.0
tp1801
a(I4470000
g1
(g5
S'\x00\x00\x00\x00\x00\x00\x00\x00'
p1802
tp1803
Rp1804
g484
F0.0
tp1805
a(I4480000
g1
(g5
S'\x00\x00\x00\x00\x00\x00\x00\x00'
p1806
tp1807
Rp1808
g484
F0.0
tp1809
a(I4490000
g1
(g5
S'\x00\x00\x00\x00\x00\x00\x00\x00'
p1810
tp1811
Rp1812
g484
F0.0
tp1813
a(I4500000
g1
(g5
S'\x00\x00\x00\x00\x00\x00\x00\x00'
p1814
tp1815
Rp1816
g484
F0.0
tp1817
a(I4510000
g1
(g5
S'\x00\x00\x00\x00\x00\x00\x00\x00'
p1818
tp1819
Rp1820
g484
F0.0
tp1821
a(I4520000
g1
(g5
S'\x00\x00\x00\x00\x00\x00\x00\x00'
p1822
tp1823
Rp1824
g484
F0.0
tp1825
a(I4530000
g1
(g5
S'\x00\x00\x00\x00\x00\x00\x00\x00'
p1826
tp1827
Rp1828
g484
F0.0
tp1829
a(I4540000
g1
(g5
S'\x00\x00\x00\x00\x00\x00\x00\x00'
p1830
tp1831
Rp1832
g484
F0.0
tp1833
a(I4550000
g1
(g5
S'\x00\x00\x00\x00\x00\x00\x00\x00'
p1834
tp1835
Rp1836
g484
F0.0
tp1837
a(I4560000
g1
(g5
S'\x00\x00\x00\x00\x00\x00\x00\x00'
p1838
tp1839
Rp1840
g484
F0.0
tp1841
a(I4570000
g1
(g5
S'\x00\x00\x00\x00\x00\x00\x00\x00'
p1842
tp1843
Rp1844
g484
F0.0
tp1845
a(I4580000
g1
(g5
S'\x00\x00\x00\x00\x00\x00\x00\x00'
p1846
tp1847
Rp1848
g484
F0.0
tp1849
a(I4590000
g1
(g5
S'\x00\x00\x00\x00\x00\x00\x00\x00'
p1850
tp1851
Rp1852
g484
F0.0
tp1853
a(I4600000
g1
(g5
S'\x00\x00\x00\x00\x00\x00\x00\x00'
p1854
tp1855
Rp1856
g484
F0.0
tp1857
a(I4610000
g1
(g5
S'\x00\x00\x00\x00\x00\x00\x00\x00'
p1858
tp1859
Rp1860
g484
F0.0
tp1861
a(I4620000
g1
(g5
S'\x00\x00\x00\x00\x00\x00\x00\x00'
p1862
tp1863
Rp1864
g484
F0.0
tp1865
a(I4630000
g1
(g5
S'{\x14\xaeG\xe1z\x84?'
p1866
tp1867
Rp1868
g484
F0.0
tp1869
a(I4640000
g1
(g5
S'{\x14\xaeG\xe1z\x84?'
p1870
tp1871
Rp1872
g484
F0.0
tp1873
a(I4650000
g1
(g5
S'{\x14\xaeG\xe1z\x84?'
p1874
tp1875
Rp1876
g484
F0.0
tp1877
a(I4660000
g1
(g5
S'{\x14\xaeG\xe1z\xb4?'
p1878
tp1879
Rp1880
g484
F5.0
tp1881
a(I4670000
g1
(g5
S'{\x14\xaeG\xe1z\xb4?'
p1882
tp1883
Rp1884
g484
F0.0
tp1885
a(I4680000
g1
(g5
S'{\x14\xaeG\xe1z\xb4?'
p1886
tp1887
Rp1888
g484
F0.0
tp1889
a(I4690000
g1
(g5
S'{\x14\xaeG\xe1z\xb4?'
p1890
tp1891
Rp1892
g484
F0.0
tp1893
a(I4700000
g1
(g5
S'\xc3\xf5(\\\x8f\xc2\xe5?'
p1894
tp1895
Rp1896
g1
(g5
S'\xc3\xf5(\\\x8f\xc2\xe5?'
p1897
tp1898
Rp1899
F42.0
tp1900
a(I4710000
g1
(g5
S'\x85\xebQ\xb8\x1e\x85\xf7?'
p1901
tp1902
Rp1903
g1
(g5
S'\x85\xebQ\xb8\x1e\x85\xf7?'
p1904
tp1905
Rp1906
F25.0
tp1907
a(I4720000
g1
(g5
S'=\n\xd7\xa3p=\xfe?'
p1908
tp1909
Rp1910
g1
(g5
S'=\n\xd7\xa3p=\xfe?'
p1911
tp1912
Rp1913
F21.0
tp1914
a(I4730000
g1
(g5
S'\xaeG\xe1z\x14\xae\x05@'
p1915
tp1916
Rp1917
g1
(g5
S'\xaeG\xe1z\x14\xae\x05@'
p1918
tp1919
Rp1920
F29.0
tp1921
a(I4740000
g1
(g5
S'\xd7\xa3p=\n\xd7\r@'
p1922
tp1923
Rp1924
g1
(g5
S'\xd7\xa3p=\n\xd7\r@'
p1925
tp1926
Rp1927
F30.0
tp1928
a(I4750000
g1
(g5
S'\xc3\xf5(\\\x8f\xc2\x11@'
p1929
tp1930
Rp1931
g1
(g5
S'\xc3\xf5(\\\x8f\xc2\x11@'
p1932
tp1933
Rp1934
F26.0
tp1935
a(I4760000
g1
(g5
S'\x9a\x99\x99\x99\x99\x99\x15@'
p1936
tp1937
Rp1938
g1
(g5
S'\x9a\x99\x99\x99\x99\x99\x15@'
p1939
tp1940
Rp1941
F31.0
tp1942
a(I4770000
g1
(g5
S'\x9a\x99\x99\x99\x99\x99\x18@'
p1943
tp1944
Rp1945
g1
(g5
S'\x9a\x99\x99\x99\x99\x99\x18@'
p1946
tp1947
Rp1948
F12.0
tp1949
a(I4780000
g1
(g5
S'\xe1z\x14\xaeG\xe1\x1c@'
p1950
tp1951
Rp1952
g1
(g5
S'\xe1z\x14\xaeG\xe1\x1c@'
p1953
tp1954
Rp1955
F38.0
tp1956
a(I4790000
g1
(g5
S')\\\x8f\xc2\xf5( @'
p1957
tp1958
Rp1959
g1
(g5
S')\\\x8f\xc2\xf5( @'
p1960
tp1961
Rp1962
F39.0
tp1963
a(I4800000
g1
(g5
S'q=\n\xd7\xa3\xf0 @'
p1964
tp1965
Rp1966
g1
(g5
S'q=\n\xd7\xa3\xf0 @'
p1967
tp1968
Rp1969
F18.0
tp1970
a(I4810000
g1
(g5
S'\x00\x00\x00\x00\x00\x00#@'
p1971
tp1972
Rp1973
g1
(g5
S'\x00\x00\x00\x00\x00\x00#@'
p1974
tp1975
Rp1976
F41.0
tp1977
a(I4820000
g1
(g5
S'\xb8\x1e\x85\xebQ8$@'
p1978
tp1979
Rp1980
g1
(g5
S'\xb8\x1e\x85\xebQ8$@'
p1981
tp1982
Rp1983
F5.0
tp1984
a(I4830000
g1
(g5
S'\x1f\x85\xebQ\xb8\x9e%@'
p1985
tp1986
Rp1987
g1
(g5
S'\x1f\x85\xebQ\xb8\x9e%@'
p1988
tp1989
Rp1990
F32.0
tp1991
a(I4840000
g1
(g5
S"\xd7\xa3p=\n\xd7'@"
p1992
tp1993
Rp1994
g1
(g5
S"\xd7\xa3p=\n\xd7'@"
p1995
tp1996
Rp1997
F26.0
tp1998
a(I4850000
g1
(g5
S'\x85\xebQ\xb8\x1e\x05+@'
p1999
tp2000
Rp2001
g1
(g5
S'\x85\xebQ\xb8\x1e\x05+@'
p2002
tp2003
Rp2004
F41.0
tp2005
a(I4860000
g1
(g5
S'\xc3\xf5(\\\x8fB-@'
p2006
tp2007
Rp2008
g1
(g5
S'\xc3\xf5(\\\x8fB-@'
p2009
tp2010
Rp2011
F30.0
tp2012
a(I4870000
g1
(g5
S'\xb8\x1e\x85\xebQ8.@'
p2013
tp2014
Rp2015
g1
(g5
S'\xb8\x1e\x85\xebQ8.@'
p2016
tp2017
Rp2018
F26.0
tp2019
a(I4880000
g1
(g5
S'\x00\x00\x00\x00\x00\x80/@'
p2020
tp2021
Rp2022
g1
(g5
S'\x00\x00\x00\x00\x00\x80/@'
p2023
tp2024
Rp2025
F19.0
tp2026
a(I4890000
g1
(g5
S'\x8f\xc2\xf5(\\\x8f0@'
p2027
tp2028
Rp2029
g1
(g5
S'\x8f\xc2\xf5(\\\x8f0@'
p2030
tp2031
Rp2032
F21.0
tp2033
a(I4900000
g1
(g5
S'\xd7\xa3p=\nW1@'
p2034
tp2035
Rp2036
g1
(g5
S'\xd7\xa3p=\nW1@'
p2037
tp2038
Rp2039
F45.0
tp2040
a(I4910000
g1
(g5
S'\x1f\x85\xebQ\xb8\xde1@'
p2041
tp2042
Rp2043
g1
(g5
S'\x1f\x85\xebQ\xb8\xde1@'
p2044
tp2045
Rp2046
F10.0
tp2047
a(I4920000
g1
(g5
S'\x85\xebQ\xb8\x1e\xc52@'
p2048
tp2049
Rp2050
g1
(g5
S'\x85\xebQ\xb8\x1e\xc52@'
p2051
tp2052
Rp2053
F18.0
tp2054
a(I4930000
g1
(g5
S'\\\x8f\xc2\xf5(\\3@'
p2055
tp2056
Rp2057
g1
(g5
S'\\\x8f\xc2\xf5(\\3@'
p2058
tp2059
Rp2060
F36.0
tp2061
a(I4940000
g1
(g5
S'\x00\x00\x00\x00\x00\x004@'
p2062
tp2063
Rp2064
g1
(g5
S'\x00\x00\x00\x00\x00\x004@'
p2065
tp2066
Rp2067
F25.0
tp2068
a(I4950000
g1
(g5
S'\xcd\xcc\xcc\xcc\xcc\xcc4@'
p2069
tp2070
Rp2071
g1
(g5
S'\xcd\xcc\xcc\xcc\xcc\xcc4@'
p2072
tp2073
Rp2074
F7.0
tp2075
a(I4960000
g1
(g5
S'\x8f\xc2\xf5(\\O5@'
p2076
tp2077
Rp2078
g1
(g5
S'R\xb8\x1e\x85\xebQ5@'
p2079
tp2080
Rp2081
F0.0
tp2082
a(I4970000
g1
(g5
S'\x1f\x85\xebQ\xb8\x1e6@'
p2083
tp2084
Rp2085
g1
(g5
S'\x1f\x85\xebQ\xb8\x1e6@'
p2086
tp2087
Rp2088
F26.0
tp2089
a(I4980000
g1
(g5
S'\x00\x00\x00\x00\x00\xc06@'
p2090
tp2091
Rp2092
g1
(g5
S'\x00\x00\x00\x00\x00\xc06@'
p2093
tp2094
Rp2095
F34.0
tp2096
a(I4990000
g1
(g5
S'\x1f\x85\xebQ\xb8^7@'
p2097
tp2098
Rp2099
g1
(g5
S'\x1f\x85\xebQ\xb8^7@'
p2100
tp2101
Rp2102
F32.0
tp2103
a(I5000000
g1
(g5
S'\n\xd7\xa3p=\xca7@'
p2104
tp2105
Rp2106
g1
(g5
S'\n\xd7\xa3p=\xca7@'
p2107
tp2108
Rp2109
F6.0
tp2110
a(I5010000
g1
(g5
S'\xd7\xa3p=\n\x978@'
p2111
tp2112
Rp2113
g1
(g5
S'\xd7\xa3p=\n\x978@'
p2114
tp2115
Rp2116
F29.0
tp2117
a(I5020000
g1
(g5
S'\xa4p=\n\xd7c9@'
p2118
tp2119
Rp2120
g1
(g5
S'\xa4p=\n\xd7c9@'
p2121
tp2122
Rp2123
F27.0
tp2124
a(I5030000
g1
(g5
S'{\x14\xaeG\xe1\xba9@'
p2125
tp2126
Rp2127
g1
(g5
S'{\x14\xaeG\xe1\xba9@'
p2128
tp2129
Rp2130
F25.0
tp2131
a(I5040000
g1
(g5
S'\n\xd7\xa3p=\xca9@'
p2132
tp2133
Rp2134
g1
(g5
S'\n\xd7\xa3p=\xca9@'
p2135
tp2136
Rp2137
F31.0
tp2138
a(I5050000
g1
(g5
S'\x9a\x99\x99\x99\x99\x19:@'
p2139
tp2140
Rp2141
g1
(g5
S'\x9a\x99\x99\x99\x99\x19:@'
p2142
tp2143
Rp2144
F43.0
tp2145
a(I5060000
g1
(g5
S'\x14\xaeG\xe1z\x14:@'
p2146
tp2147
Rp2148
g2144
F18.0
tp2149
a(I5070000
g1
(g5
S'\xa4p=\n\xd7\xe39@'
p2150
tp2151
Rp2152
g1
(g5
S'333333:@'
p2153
tp2154
Rp2155
F6.0
tp2156
a(I5080000
g1
(g5
S'\\\x8f\xc2\xf5(\x1c:@'
p2157
tp2158
Rp2159
g2155
F35.0
tp2160
a(I5090000
g1
(g5
S'\x8f\xc2\xf5(\\\x0f:@'
p2161
tp2162
Rp2163
g2155
F22.0
tp2164
a(I5100000
g1
(g5
S'\x00\x00\x00\x00\x00\xc09@'
p2165
tp2166
Rp2167
g2155
F10.0
tp2168
a(I5110000
g1
(g5
S'\\\x8f\xc2\xf5(\x9c9@'
p2169
tp2170
Rp2171
g2155
F31.0
tp2172
a(I5120000
g1
(g5
S'\xa4p=\n\xd7#9@'
p2173
tp2174
Rp2175
g2155
F23.0
tp2176
a(I5130000
g1
(g5
S'\xc3\xf5(\\\x8f\x829@'
p2177
tp2178
Rp2179
g2155
F25.0
tp2180
a(I5140000
g1
(g5
S'\x8f\xc2\xf5(\\\xcf8@'
p2181
tp2182
Rp2183
g2155
F1.0
tp2184
a(I5150000
g1
(g5
S'\x8f\xc2\xf5(\\\xcf8@'
p2185
tp2186
Rp2187
g2155
F13.0
tp2188
a(I5160000
g1
(g5
S'33333\xb38@'
p2189
tp2190
Rp2191
g2155
F18.0
tp2192
a(I5170000
g1
(g5
S'\x1f\x85\xebQ\xb8^8@'
p2193
tp2194
Rp2195
g2155
F37.0
tp2196
a(I5180000
g1
(g5
S'\x9a\x99\x99\x99\x99\xd97@'
p2197
tp2198
Rp2199
g2155
F36.0
tp2200
a(I5190000
g1
(g5
S'\xc3\xf5(\\\x8fB7@'
p2201
tp2202
Rp2203
g2155
F13.0
tp2204
a(I5200000
g1
(g5
S'H\xe1z\x14\xae\xc77@'
p2205
tp2206
Rp2207
g2155
F34.0
tp2208
a(I5210000
g1
(g5
S'H\xe1z\x14\xae\x078@'
p2209
tp2210
Rp2211
g2155
F33.0
tp2212
a(I5220000
g1
(g5
S'\x9a\x99\x99\x99\x99\x198@'
p2213
tp2214
Rp2215
g2155
F27.0
tp2216
a(I5230000
g1
(g5
S'H\xe1z\x14\xae\xc77@'
p2217
tp2218
Rp2219
g2155
F22.0
tp2220
a(I5240000
g1
(g5
S'\xaeG\xe1z\x14\xee7@'
p2221
tp2222
Rp2223
g2155
F19.0
tp2224
a(I5250000
g1
(g5
S'\\\x8f\xc2\xf5(\xdc7@'
p2225
tp2226
Rp2227
g2155
F33.0
tp2228
a(I5260000
g1
(g5
S'=\n\xd7\xa3p=8@'
p2229
tp2230
Rp2231
g2155
F11.0
tp2232
a(I5270000
g1
(g5
S'q=\n\xd7\xa3\xf07@'
p2233
tp2234
Rp2235
g2155
F34.0
tp2236
a(I5280000
g1
(g5
S'\xe1z\x14\xaeG\xe17@'
p2237
tp2238
Rp2239
g2155
F13.0
tp2240
a(I5290000
g1
(g5
S'R\xb8\x1e\x85\xebQ8@'
p2241
tp2242
Rp2243
g2155
F36.0
tp2244
a(I5300000
g1
(g5
S'\x1f\x85\xebQ\xb8^8@'
p2245
tp2246
Rp2247
g2155
F29.0
tp2248
a(I5310000
g1
(g5
S'\xcd\xcc\xcc\xcc\xcc\x8c8@'
p2249
tp2250
Rp2251
g2155
F22.0
tp2252
a(I5320000
g1
(g5
S'\n\xd7\xa3p=\n8@'
p2253
tp2254
Rp2255
g2155
F4.0
tp2256
a(I5330000
g1
(g5
S'\xf6(\\\x8f\xc258@'
p2257
tp2258
Rp2259
g2155
F20.0
tp2260
a(I5340000
g1
(g5
S'\xf6(\\\x8f\xc2\xf57@'
p2261
tp2262
Rp2263
g2155
F26.0
tp2264
a(I5350000
g1
(g5
S'\x1f\x85\xebQ\xb8\xde7@'
p2265
tp2266
Rp2267
g2155
F2.0
tp2268
a(I5360000
g1
(g5
S'3333338@'
p2269
tp2270
Rp2271
g2155
F25.0
tp2272
a(I5370000
g1
(g5
S'\xe1z\x14\xaeG!8@'
p2273
tp2274
Rp2275
g2155
F36.0
tp2276
a(I5380000
g1
(g5
S'3333338@'
p2277
tp2278
Rp2279
g2155
F11.0
tp2280
a(I5390000
g1
(g5
S'=\n\xd7\xa3p=8@'
p2281
tp2282
Rp2283
g2155
F34.0
tp2284
a(I5400000
g1
(g5
S'\xecQ\xb8\x1e\x85+8@'
p2285
tp2286
Rp2287
g2155
F41.0
tp2288
a(I5410000
g1
(g5
S'\xcd\xcc\xcc\xcc\xcc\xcc7@'
p2289
tp2290
Rp2291
g2155
F32.0
tp2292
a(I5420000
g1
(g5
S'\x8f\xc2\xf5(\\\x8f7@'
p2293
tp2294
Rp2295
g2155
F34.0
tp2296
a(I5430000
g1
(g5
S'\x9a\x99\x99\x99\x99\x197@'
p2297
tp2298
Rp2299
g2155
F3.0
tp2300
a(I5440000
g1
(g5
S'=\n\xd7\xa3p\xfd6@'
p2301
tp2302
Rp2303
g2155
F28.0
tp2304
a(I5450000
g1
(g5
S'\x1f\x85\xebQ\xb8\xde6@'
p2305
tp2306
Rp2307
g2155
F42.0
tp2308
a(I5460000
g1
(g5
S'\x85\xebQ\xb8\x1e\x057@'
p2309
tp2310
Rp2311
g2155
F32.0
tp2312
a(I5470000
g1
(g5
S'\x1f\x85\xebQ\xb8\xde6@'
p2313
tp2314
Rp2315
g2155
F7.0
tp2316
a(I5480000
g1
(g5
S'\x9a\x99\x99\x99\x99\x197@'
p2317
tp2318
Rp2319
g2155
F38.0
tp2320
a(I5490000
g1
(g5
S'33333s7@'
p2321
tp2322
Rp2323
g2155
F28.0
tp2324
a(I5500000
g1
(g5
S'ffffff7@'
p2325
tp2326
Rp2327
g2155
F33.0
tp2328
a(I5510000
g1
(g5
S'fffff&7@'
p2329
tp2330
Rp2331
g2155
F32.0
tp2332
a(I5520000
g1
(g5
S'=\n\xd7\xa3p=7@'
p2333
tp2334
Rp2335
g2155
F44.0
tp2336
a(I5530000
g1
(g5
S'\x8f\xc2\xf5(\\\x8f6@'
p2337
tp2338
Rp2339
g2155
F6.0
tp2340
a(I5540000
g1
(g5
S'\xe1z\x14\xaeGa6@'
p2341
tp2342
Rp2343
g2155
F21.0
tp2344
a(I5550000
g1
(g5
S'\n\xd7\xa3p=\n6@'
p2345
tp2346
Rp2347
g2155
F25.0
tp2348
a(I5560000
g1
(g5
S'33333s6@'
p2349
tp2350
Rp2351
g2155
F38.0
tp2352
a(I5570000
g1
(g5
S'\x85\xebQ\xb8\x1e\xc56@'
p2353
tp2354
Rp2355
g2155
F37.0
tp2356
a(I5580000
g1
(g5
S'{\x14\xaeG\xe1z6@'
p2357
tp2358
Rp2359
g2155
F28.0
tp2360
a(I5590000
g1
(g5
S'\xa4p=\n\xd7\xe35@'
p2361
tp2362
Rp2363
g2155
F33.0
tp2364
a(I5600000
g1
(g5
S'\xc3\xf5(\\\x8f\x826@'
p2365
tp2366
Rp2367
g2155
F31.0
tp2368
a(I5610000
g1
(g5
S'\xaeG\xe1z\x14\xee5@'
p2369
tp2370
Rp2371
g2155
F3.0
tp2372
a(I5620000
g1
(g5
S'\n\xd7\xa3p=\n6@'
p2373
tp2374
Rp2375
g2155
F23.0
tp2376
a(I5630000
g1
(g5
S'\\\x8f\xc2\xf5(\x1c5@'
p2377
tp2378
Rp2379
g2155
F0.0
tp2380
a(I5640000
g1
(g5
S'\xd7\xa3p=\n\x974@'
p2381
tp2382
Rp2383
g2155
F11.0
tp2384
a(I5650000
g1
(g5
S'=\n\xd7\xa3p\xfd4@'
p2385
tp2386
Rp2387
g2155
F33.0
tp2388
a(I5660000
g1
(g5
S'\xcd\xcc\xcc\xcc\xcc\x8c4@'
p2389
tp2390
Rp2391
g2155
F0.0
tp2392
a(I5670000
g1
(g5
S'\x8f\xc2\xf5(\\\x0f4@'
p2393
tp2394
Rp2395
g2155
F0.0
tp2396
a(I5680000
g1
(g5
S'\\\x8f\xc2\xf5(\x1c3@'
p2397
tp2398
Rp2399
g2155
F0.0
tp2400
a(I5690000
g1
(g5
S'\x1f\x85\xebQ\xb8^3@'
p2401
tp2402
Rp2403
g2155
F35.0
tp2404
a(I5700000
g1
(g5
S'\xa4p=\n\xd7#3@'
p2405
tp2406
Rp2407
g2155
F21.0
tp2408
a(I5710000
g1
(g5
S'=\n\xd7\xa3p}2@'
p2409
tp2410
Rp2411
g2155
F9.0
tp2412
a(I5720000
g1
(g5
S'\x8f\xc2\xf5(\\O2@'
p2413
tp2414
Rp2415
g2155
F23.0
tp2416
a(I5730000
g1
(g5
S'\x00\x00\x00\x00\x00\xc02@'
p2417
tp2418
Rp2419
g2155
F35.0
tp2420
a(I5740000
g1
(g5
S'\xb8\x1e\x85\xebQ\xb82@'
p2421
tp2422
Rp2423
g2155
F31.0
tp2424
a(I5750000
g1
(g5
S'\xc3\xf5(\\\x8f\x822@'
p2425
tp2426
Rp2427
g2155
F0.0
tp2428
a(I5760000
g1
(g5
S'R\xb8\x1e\x85\xeb\x112@'
p2429
tp2430
Rp2431
g2155
F4.0
tp2432
a(I5770000
g1
(g5
S'\xa4p=\n\xd7c2@'
p2433
tp2434
Rp2435
g2155
F14.0
tp2436
a(I5780000
g1
(g5
S'\xb8\x1e\x85\xebQ\xf82@'
p2437
tp2438
Rp2439
g2155
F16.0
tp2440
a(I5790000
g1
(g5
S'\x85\xebQ\xb8\x1eE3@'
p2441
tp2442
Rp2443
g2155
F39.0
tp2444
a(I5800000
g1
(g5
S'\\\x8f\xc2\xf5(\x9c3@'
p2445
tp2446
Rp2447
g2155
F24.0
tp2448
a(I5810000
g1
(g5
S'\x14\xaeG\xe1zT4@'
p2449
tp2450
Rp2451
g2155
F35.0
tp2452
a(I5820000
g1
(g5
S'=\n\xd7\xa3p=4@'
p2453
tp2454
Rp2455
g2155
F36.0
tp2456
a(I5830000
g1
(g5
S'\xa4p=\n\xd7c4@'
p2457
tp2458
Rp2459
g2155
F32.0
tp2460
a(I5840000
g1
(g5
S'\x9a\x99\x99\x99\x99Y4@'
p2461
tp2462
Rp2463
g2155
F42.0
tp2464
a(I5850000
g1
(g5
S'\xe1z\x14\xaeG\xa14@'
p2465
tp2466
Rp2467
g2155
F45.0
tp2468
a(I5860000
g1
(g5
S'R\xb8\x1e\x85\xeb\xd14@'
p2469
tp2470
Rp2471
g2155
F19.0
tp2472
a(I5870000
g1
(g5
S'\x00\x00\x00\x00\x00\x005@'
p2473
tp2474
Rp2475
g2155
F36.0
tp2476
a(I5880000
g1
(g5
S'\x9a\x99\x99\x99\x99\x195@'
p2477
tp2478
Rp2479
g2155
F33.0
tp2480
a(I5890000
g1
(g5
S'\xecQ\xb8\x1e\x85\xab4@'
p2481
tp2482
Rp2483
g2155
F0.0
tp2484
a(I5900000
g1
(g5
S'\x9a\x99\x99\x99\x99\x994@'
p2485
tp2486
Rp2487
g2155
F36.0
tp2488
a(I5910000
g1
(g5
S'\x00\x00\x00\x00\x00\x005@'
p2489
tp2490
Rp2491
g2155
F30.0
tp2492
a(I5920000
g1
(g5
S'\xf6(\\\x8f\xc255@'
p2493
tp2494
Rp2495
g2155
F41.0
tp2496
a(I5930000
g1
(g5
S'R\xb8\x1e\x85\xebQ5@'
p2497
tp2498
Rp2499
g2155
F46.0
tp2500
a(I5940000
g1
(g5
S')\\\x8f\xc2\xf5h5@'
p2501
tp2502
Rp2503
g2155
F24.0
tp2504
a(I5950000
g1
(g5
S'\x14\xaeG\xe1zT5@'
p2505
tp2506
Rp2507
g2155
F26.0
tp2508
a(I5960000
g1
(g5
S'R\xb8\x1e\x85\xebQ6@'
p2509
tp2510
Rp2511
g2155
F30.0
tp2512
a(I5970000
g1
(g5
S'\x9a\x99\x99\x99\x99\x996@'
p2513
tp2514
Rp2515
g2155
F30.0
tp2516
a(I5980000
g1
(g5
S'\x1f\x85\xebQ\xb8\x1e7@'
p2517
tp2518
Rp2519
g2155
F40.0
tp2520
a(I5990000
g1
(g5
S'\x00\x00\x00\x00\x00@7@'
p2521
tp2522
Rp2523
g2155
F8.0
tp2524
a(I6000000
g1
(g5
S'\xcd\xcc\xcc\xcc\xcc\x0c8@'
p2525
tp2526
Rp2527
g2155
F26.0
tp2528
a(I6010000
g1
(g5
S'=\n\xd7\xa3p\xfd8@'
p2529
tp2530
Rp2531
g2155
F22.0
tp2532
a(I6020000
g1
(g5
S'q=\n\xd7\xa309@'
p2533
tp2534
Rp2535
g2155
F27.0
tp2536
a(I6030000
g1
(g5
S'\x85\xebQ\xb8\x1eE9@'
p2537
tp2538
Rp2539
g2155
F32.0
tp2540
a(I6040000
g1
(g5
S'H\xe1z\x14\xaeG9@'
p2541
tp2542
Rp2543
g2155
F19.0
tp2544
a(I6050000
g1
(g5
S'\\\x8f\xc2\xf5(\x1c:@'
p2545
tp2546
Rp2547
g2155
F28.0
tp2548
a(I6060000
g1
(g5
S'\x85\xebQ\xb8\x1e\xc59@'
p2549
tp2550
Rp2551
g2155
F17.0
tp2552
a(I6070000
g1
(g5
S'\xc3\xf5(\\\x8f\xc29@'
p2553
tp2554
Rp2555
g2155
F24.0
tp2556
a(I6080000
g1
(g5
S'\xf6(\\\x8f\xc2\xb59@'
p2557
tp2558
Rp2559
g2155
F8.0
tp2560
a(I6090000
g1
(g5
S'\xcd\xcc\xcc\xcc\xcc\x8c:@'
p2561
tp2562
Rp2563
g1
(g5
S'\xcd\xcc\xcc\xcc\xcc\x8c:@'
p2564
tp2565
Rp2566
F24.0
tp2567
a(I6100000
g1
(g5
S'\x9a\x99\x99\x99\x99\x99:@'
p2568
tp2569
Rp2570
g1
(g5
S'\x9a\x99\x99\x99\x99\x99:@'
p2571
tp2572
Rp2573
F21.0
tp2574
a(I6110000
g1
(g5
S'\xd7\xa3p=\n\x97:@'
p2575
tp2576
Rp2577
g1
(g5
S'\\\x8f\xc2\xf5(\x9c:@'
p2578
tp2579
Rp2580
F43.0
tp2581
a(I6120000
g1
(g5
S'\xa4p=\n\xd7#:@'
p2582
tp2583
Rp2584
g1
(g5
S')\\\x8f\xc2\xf5\xa8:@'
p2585
tp2586
Rp2587
F13.0
tp2588
a(I6130000
g1
(g5
S'\\\x8f\xc2\xf5(\x9c9@'
p2589
tp2590
Rp2591
g2587
F16.0
tp2592
a(I6140000
g1
(g5
S'\x1f\x85\xebQ\xb8\x9e9@'
p2593
tp2594
Rp2595
g2587
F29.0
tp2596
a(I6150000
g1
(g5
S'3333339@'
p2597
tp2598
Rp2599
g2587
F25.0
tp2600
a(I6160000
g1
(g5
S'\xf6(\\\x8f\xc259@'
p2601
tp2602
Rp2603
g2587
F22.0
tp2604
a(I6170000
g1
(g5
S'\xaeG\xe1z\x14n9@'
p2605
tp2606
Rp2607
g2587
F23.0
tp2608
a(I6180000
g1
(g5
S'\x1f\x85\xebQ\xb8^9@'
p2609
tp2610
Rp2611
g2587
F30.0
tp2612
a(I6190000
g1
(g5
S'H\xe1z\x14\xaeG9@'
p2613
tp2614
Rp2615
g2587
F17.0
tp2616
a(I6200000
g1
(g5
S'{\x14\xaeG\xe1\xba9@'
p2617
tp2618
Rp2619
g2587
F33.0
tp2620
a(I6210000
g1
(g5
S'\x14\xaeG\xe1z\xd49@'
p2621
tp2622
Rp2623
g2587
F17.0
tp2624
a(I6220000
g1
(g5
S'H\xe1z\x14\xae\x07:@'
p2625
tp2626
Rp2627
g2587
F6.0
tp2628
a(I6230000
g1
(g5
S'\xaeG\xe1z\x14n:@'
p2629
tp2630
Rp2631
g2587
F29.0
tp2632
a(I6240000
g1
(g5
S'\xcd\xcc\xcc\xcc\xcc\x0c:@'
p2633
tp2634
Rp2635
g2587
F19.0
tp2636
a(I6250000
g1
(g5
S'fffff&:@'
p2637
tp2638
Rp2639
g2587
F33.0
tp2640
a(I6260000
g1
(g5
S'\x9a\x99\x99\x99\x99\xd99@'
p2641
tp2642
Rp2643
g2587
F12.0
tp2644
a(I6270000
g1
(g5
S'\xa4p=\n\xd7\xe39@'
p2645
tp2646
Rp2647
g2587
F9.0
tp2648
a(I6280000
g1
(g5
S'\x8f\xc2\xf5(\\\xcf9@'
p2649
tp2650
Rp2651
g2587
F25.0
tp2652
a(I6290000
g1
(g5
S'{\x14\xaeG\xe1z9@'
p2653
tp2654
Rp2655
g2587
F64.0
tp2656
a(I6300000
g1
(g5
S'R\xb8\x1e\x85\xeb\x11:@'
p2657
tp2658
Rp2659
g2587
F41.0
tp2660
a(I6310000
g1
(g5
S')\\\x8f\xc2\xf5\xa89@'
p2661
tp2662
Rp2663
g2587
F29.0
tp2664
a(I6320000
g1
(g5
S'\xcd\xcc\xcc\xcc\xccL:@'
p2665
tp2666
Rp2667
g2587
F71.0
tp2668
a(I6330000
g1
(g5
S'q=\n\xd7\xa3\xb0:@'
p2669
tp2670
Rp2671
g1
(g5
S'q=\n\xd7\xa3\xb0:@'
p2672
tp2673
Rp2674
F42.0
tp2675
a(I6340000
g1
(g5
S'{\x14\xaeG\xe1z:@'
p2676
tp2677
Rp2678
g2674
F17.0
tp2679
a(I6350000
g1
(g5
S'\xa4p=\n\xd7#:@'
p2680
tp2681
Rp2682
g2674
F25.0
tp2683
a(I6360000
g1
(g5
S'R\xb8\x1e\x85\xeb\x11:@'
p2684
tp2685
Rp2686
g2674
F27.0
tp2687
a(I6370000
g1
(g5
S'R\xb8\x1e\x85\xeb\x91:@'
p2688
tp2689
Rp2690
g2674
F48.0
tp2691
a(I6380000
g1
(g5
S'H\xe1z\x14\xaeG:@'
p2692
tp2693
Rp2694
g2674
F31.0
tp2695
a(I6390000
g1
(g5
S'\xecQ\xb8\x1e\x85\xab:@'
p2696
tp2697
Rp2698
g2674
F53.0
tp2699
a(I6400000
g1
(g5
S'\xc3\xf5(\\\x8f\xc2:@'
p2700
tp2701
Rp2702
g1
(g5
S'\x14\xaeG\xe1z\xd4:@'
p2703
tp2704
Rp2705
F28.0
tp2706
a(I6410000
g1
(g5
S'\x85\xebQ\xb8\x1eE;@'
p2707
tp2708
Rp2709
g1
(g5
S'\x85\xebQ\xb8\x1eE;@'
p2710
tp2711
Rp2712
F51.0
tp2713
a(I6420000
g1
(g5
S'\n\xd7\xa3p=\xca;@'
p2714
tp2715
Rp2716
g1
(g5
S'\n\xd7\xa3p=\xca;@'
p2717
tp2718
Rp2719
F26.0
tp2720
a(I6430000
g1
(g5
S'\xb8\x1e\x85\xebQ\xb8;@'
p2721
tp2722
Rp2723
g1
(g5
S'\xaeG\xe1z\x14\xee;@'
p2724
tp2725
Rp2726
F22.0
tp2727
a(I6440000
g1
(g5
S'\xf6(\\\x8f\xc2u;@'
p2728
tp2729
Rp2730
g2726
F19.0
tp2731
a(I6450000
g1
(g5
S'\xe1z\x14\xaeG\xa1;@'
p2732
tp2733
Rp2734
g2726
F24.0
tp2735
a(I6460000
g1
(g5
S'\xaeG\xe1z\x14\xae;@'
p2736
tp2737
Rp2738
g2726
F16.0
tp2739
a(I6470000
g1
(g5
S'=\n\xd7\xa3p};@'
p2740
tp2741
Rp2742
g2726
F33.0
tp2743
a(I6480000
g1
(g5
S'\x85\xebQ\xb8\x1e\xc5;@'
p2744
tp2745
Rp2746
g2726
F32.0
tp2747
a(I6490000
g1
(g5
S'=\n\xd7\xa3p\xfd;@'
p2748
tp2749
Rp2750
g1
(g5
S'\x85\xebQ\xb8\x1e\x05<@'
p2751
tp2752
Rp2753
F40.0
tp2754
a(I6500000
g1
(g5
S'\x1f\x85\xebQ\xb8\x9e;@'
p2755
tp2756
Rp2757
g1
(g5
S'\x8f\xc2\xf5(\\\x0f<@'
p2758
tp2759
Rp2760
F21.0
tp2761
a(I6510000
g1
(g5
S'\x1f\x85\xebQ\xb8\x9e;@'
p2762
tp2763
Rp2764
g2760
F36.0
tp2765
a(I6520000
g1
(g5
S'\x8f\xc2\xf5(\\\x8f;@'
p2766
tp2767
Rp2768
g2760
F37.0
tp2769
a(I6530000
g1
(g5
S'\\\x8f\xc2\xf5(\x9c:@'
p2770
tp2771
Rp2772
g2760
F5.0
tp2773
a(I6540000
g1
(g5
S'\xd7\xa3p=\nW:@'
p2774
tp2775
Rp2776
g2760
F45.0
tp2777
a(I6550000
g1
(g5
S'\xb8\x1e\x85\xebQ8:@'
p2778
tp2779
Rp2780
g2760
F31.0
tp2781
a(I6560000
g1
(g5
S'\\\x8f\xc2\xf5(\xdc9@'
p2782
tp2783
Rp2784
g2760
F23.0
tp2785
a(I6570000
g1
(g5
S'\xd7\xa3p=\n\x17:@'
p2786
tp2787
Rp2788
g2760
F43.0
tp2789
a(I6580000
g1
(g5
S'\xa4p=\n\xd7#:@'
p2790
tp2791
Rp2792
g2760
F30.0
tp2793
a(I6590000
g1
(g5
S'\xa4p=\n\xd7#:@'
p2794
tp2795
Rp2796
g2760
F24.0
tp2797
a(I6600000
g1
(g5
S'\xecQ\xb8\x1e\x85\xeb9@'
p2798
tp2799
Rp2800
g2760
F31.0
tp2801
a(I6610000
g1
(g5
S'\x14\xaeG\xe1zT:@'
p2802
tp2803
Rp2804
g2760
F22.0
tp2805
a(I6620000
g1
(g5
S'R\xb8\x1e\x85\xebQ:@'
p2806
tp2807
Rp2808
g2760
F2.0
tp2809
a(I6630000
g1
(g5
S')\\\x8f\xc2\xf5\xa89@'
p2810
tp2811
Rp2812
g2760
F3.0
tp2813
a(I6640000
g1
(g5
S'\xc3\xf5(\\\x8f\x829@'
p2814
tp2815
Rp2816
g2760
F48.0
tp2817
a(I6650000
g1
(g5
S'\x00\x00\x00\x00\x00\xc09@'
p2818
tp2819
Rp2820
g2760
F6.0
tp2821
a(I6660000
g1
(g5
S'q=\n\xd7\xa3\xf08@'
p2822
tp2823
Rp2824
g2760
F27.0
tp2825
a(I6670000
g1
(g5
S'33333\xb38@'
p2826
tp2827
Rp2828
g2760
F27.0
tp2829
a(I6680000
g1
(g5
S'\xb8\x1e\x85\xebQx8@'
p2830
tp2831
Rp2832
g2760
F0.0
tp2833
a(I6690000
g1
(g5
S'\x9a\x99\x99\x99\x99\xd97@'
p2834
tp2835
Rp2836
g2760
F11.0
tp2837
a(I6700000
g1
(g5
S'\xcd\xcc\xcc\xcc\xcc\x8c7@'
p2838
tp2839
Rp2840
g2760
F25.0
tp2841
a(I6710000
g1
(g5
S'\x00\x00\x00\x00\x00@7@'
p2842
tp2843
Rp2844
g2760
F27.0
tp2845
a(I6720000
g1
(g5
S'\xb8\x1e\x85\xebQx7@'
p2846
tp2847
Rp2848
g2760
F27.0
tp2849
a(I6730000
g1
(g5
S'{\x14\xaeG\xe1\xfa6@'
p2850
tp2851
Rp2852
g2760
F10.0
tp2853
a(I6740000
g1
(g5
S'\x8f\xc2\xf5(\\O6@'
p2854
tp2855
Rp2856
g2760
F15.0
tp2857
a(I6750000
g1
(g5
S'\\\x8f\xc2\xf5(\xdc5@'
p2858
tp2859
Rp2860
g2760
F54.0
tp2861
a(I6760000
g1
(g5
S'=\n\xd7\xa3p\xbd5@'
p2862
tp2863
Rp2864
g2760
F0.0
tp2865
a(I6770000
g1
(g5
S'\x00\x00\x00\x00\x00@5@'
p2866
tp2867
Rp2868
g2760
F11.0
tp2869
a(I6780000
g1
(g5
S'fffff&5@'
p2870
tp2871
Rp2872
g2760
F33.0
tp2873
a(I6790000
g1
(g5
S'\\\x8f\xc2\xf5(\xdc4@'
p2874
tp2875
Rp2876
g2760
F0.0
tp2877
a(I6800000
g1
(g5
S'\x85\xebQ\xb8\x1e\xc54@'
p2878
tp2879
Rp2880
g2760
F18.0
tp2881
a(I6810000
g1
(g5
S'\x14\xaeG\xe1z\x145@'
p2882
tp2883
Rp2884
g2760
F13.0
tp2885
a(I6820000
g1
(g5
S'\xd7\xa3p=\nW5@'
p2886
tp2887
Rp2888
g2760
F28.0
tp2889
a(I6830000
g1
(g5
S'\xc3\xf5(\\\x8f\x025@'
p2890
tp2891
Rp2892
g2760
F2.0
tp2893
a(I6840000
g1
(g5
S'\\\x8f\xc2\xf5(\x1c5@'
p2894
tp2895
Rp2896
g2760
F29.0
tp2897
a(I6850000
g1
(g5
S'\x8f\xc2\xf5(\\O5@'
p2898
tp2899
Rp2900
g2760
F33.0
tp2901
a(I6860000
g1
(g5
S'q=\n\xd7\xa3\xb05@'
p2902
tp2903
Rp2904
g2760
F39.0
tp2905
a(I6870000
g1
(g5
S'\xecQ\xb8\x1e\x85+6@'
p2906
tp2907
Rp2908
g2760
F28.0
tp2909
a(I6880000
g1
(g5
S'\n\xd7\xa3p=J6@'
p2910
tp2911
Rp2912
g2760
F41.0
tp2913
a(I6890000
g1
(g5
S'\\\x8f\xc2\xf5(\x1c6@'
p2914
tp2915
Rp2916
g2760
F34.0
tp2917
a(I6900000
g1
(g5
S'\xcd\xcc\xcc\xcc\xcc\x8c6@'
p2918
tp2919
Rp2920
g2760
F44.0
tp2921
a(I6910000
g1
(g5
S'\xf6(\\\x8f\xc2\xb56@'
p2922
tp2923
Rp2924
g2760
F36.0
tp2925
a(I6920000
g1
(g5
S'=\n\xd7\xa3p\xbd6@'
p2926
tp2927
Rp2928
g2760
F30.0
tp2929
a(I6930000
g1
(g5
S'\xf6(\\\x8f\xc257@'
p2930
tp2931
Rp2932
g2760
F27.0
tp2933
a(I6940000
g1
(g5
S'q=\n\xd7\xa3p7@'
p2934
tp2935
Rp2936
g2760
F34.0
tp2937
a(I6950000
g1
(g5
S'\x9a\x99\x99\x99\x99Y7@'
p2938
tp2939
Rp2940
g2760
F31.0
tp2941
a(I6960000
g1
(g5
S'\x8f\xc2\xf5(\\\xcf7@'
p2942
tp2943
Rp2944
g2760
F49.0
tp2945
a(I6970000
g1
(g5
S'\xaeG\xe1z\x14n8@'
p2946
tp2947
Rp2948
g2760
F29.0
tp2949
a(I6980000
g1
(g5
S'H\xe1z\x14\xae\xc77@'
p2950
tp2951
Rp2952
g2760
F28.0
tp2953
a(I6990000
g1
(g5
S'\xaeG\xe1z\x14\xee7@'
p2954
tp2955
Rp2956
g2760
F13.0
tp2957
a(I7000000
g1
(g5
S'\xaeG\xe1z\x14.8@'
p2958
tp2959
Rp2960
g2760
F23.0
tp2961
a(I7010000
g1
(g5
S'\\\x8f\xc2\xf5(\\8@'
p2962
tp2963
Rp2964
g2760
F17.0
tp2965
a(I7020000
g1
(g5
S'R\xb8\x1e\x85\xeb\x119@'
p2966
tp2967
Rp2968
g2760
F34.0
tp2969
a(I7030000
g1
(g5
S'\x14\xaeG\xe1z\x949@'
p2970
tp2971
Rp2972
g2760
F19.0
tp2973
a(I7040000
g1
(g5
S'\xa4p=\n\xd7\xa39@'
p2974
tp2975
Rp2976
g2760
F6.0
tp2977
a(I7050000
g1
(g5
S'\xf6(\\\x8f\xc259@'
p2978
tp2979
Rp2980
g2760
F9.0
tp2981
a(I7060000
g1
(g5
S'\xd7\xa3p=\nW9@'
p2982
tp2983
Rp2984
g2760
F46.0
tp2985
a(I7070000
g1
(g5
S'\x1f\x85\xebQ\xb8^9@'
p2986
tp2987
Rp2988
g2760
F7.0
tp2989
a(I7080000
g1
(g5
S')\\\x8f\xc2\xf5(9@'
p2990
tp2991
Rp2992
g2760
F29.0
tp2993
a(I7090000
g1
(g5
S'\n\xd7\xa3p=\xca8@'
p2994
tp2995
Rp2996
g2760
F16.0
tp2997
a(I7100000
g1
(g5
S'\xaeG\xe1z\x14.9@'
p2998
tp2999
Rp3000
g2760
F1.0
tp3001
a(I7110000
g1
(g5
S'\xd7\xa3p=\n\x979@'
p3002
tp3003
Rp3004
g2760
F35.0
tp3005
a(I7120000
g1
(g5
S'R\xb8\x1e\x85\xeb\x919@'
p3006
tp3007
Rp3008
g2760
F22.0
tp3009
a(I7130000
g1
(g5
S'\xf6(\\\x8f\xc2\xb59@'
p3010
tp3011
Rp3012
g2760
F9.0
tp3013
a(I7140000
g1
(g5
S'\xd7\xa3p=\nW9@'
p3014
tp3015
Rp3016
g2760
F12.0
tp3017
a(I7150000
g1
(g5
S'\x85\xebQ\xb8\x1e\xc58@'
p3018
tp3019
Rp3020
g2760
F7.0
tp3021
a(I7160000
g1
(g5
S'=\n\xd7\xa3p=9@'
p3022
tp3023
Rp3024
g2760
F32.0
tp3025
a(I7170000
g1
(g5
S'\x85\xebQ\xb8\x1eE9@'
p3026
tp3027
Rp3028
g2760
F37.0
tp3029
a(I7180000
g1
(g5
S'\xf6(\\\x8f\xc259@'
p3030
tp3031
Rp3032
g2760
F36.0
tp3033
a(I7190000
g1
(g5
S'\xcd\xcc\xcc\xcc\xccL9@'
p3034
tp3035
Rp3036
g2760
F28.0
tp3037
a(I7200000
g1
(g5
S'R\xb8\x1e\x85\xebQ9@'
p3038
tp3039
Rp3040
g2760
F29.0
tp3041
a(I7210000
g1
(g5
S'R\xb8\x1e\x85\xeb\x119@'
p3042
tp3043
Rp3044
g2760
F20.0
tp3045
a(I7220000
g1
(g5
S'\xb8\x1e\x85\xebQ89@'
p3046
tp3047
Rp3048
g2760
F13.0
tp3049
a(I7230000
g1
(g5
S'\xecQ\xb8\x1e\x85\xeb8@'
p3050
tp3051
Rp3052
g2760
F26.0
tp3053
a(I7240000
g1
(g5
S'\xc3\xf5(\\\x8fB8@'
p3054
tp3055
Rp3056
g2760
F15.0
tp3057
a(I7250000
g1
(g5
S'q=\n\xd7\xa308@'
p3058
tp3059
Rp3060
g2760
F6.0
tp3061
a(I7260000
g1
(g5
S'H\xe1z\x14\xae\x877@'
p3062
tp3063
Rp3064
g2760
F1.0
tp3065
a(I7270000
g1
(g5
S'\x8f\xc2\xf5(\\\x0f7@'
p3066
tp3067
Rp3068
g2760
F15.0
tp3069
a(I7280000
g1
(g5
S'q=\n\xd7\xa3p7@'
p3070
tp3071
Rp3072
g2760
F32.0
tp3073
a(I7290000
g1
(g5
S'=\n\xd7\xa3p}6@'
p3074
tp3075
Rp3076
g2760
F13.0
tp3077
a(I7300000
g1
(g5
S'\xf6(\\\x8f\xc2u6@'
p3078
tp3079
Rp3080
g2760
F27.0
tp3081
a(I7310000
g1
(g5
S'\x85\xebQ\xb8\x1e\x856@'
p3082
tp3083
Rp3084
g2760
F31.0
tp3085
a(I7320000
g1
(g5
S'\xf6(\\\x8f\xc256@'
p3086
tp3087
Rp3088
g2760
F13.0
tp3089
a(I7330000
g1
(g5
S'\n\xd7\xa3p=\n6@'
p3090
tp3091
Rp3092
g2760
F31.0
tp3093
a(I7340000
g1
(g5
S'3333336@'
p3094
tp3095
Rp3096
g2760
F11.0
tp3097
a(I7350000
g1
(g5
S'\x8f\xc2\xf5(\\\x0f6@'
p3098
tp3099
Rp3100
g2760
F23.0
tp3101
a(I7360000
g1
(g5
S'=\n\xd7\xa3p}5@'
p3102
tp3103
Rp3104
g2760
F12.0
tp3105
a(I7370000
g1
(g5
S'\xa4p=\n\xd7c5@'
p3106
tp3107
Rp3108
g2760
F25.0
tp3109
a(I7380000
g1
(g5
S'\n\xd7\xa3p=\x8a5@'
p3110
tp3111
Rp3112
g2760
F11.0
tp3113
a(I7390000
g1
(g5
S'\xc3\xf5(\\\x8f\x825@'
p3114
tp3115
Rp3116
g2760
F2.0
tp3117
a(I7400000
g1
(g5
S'\xe1z\x14\xaeG!6@'
p3118
tp3119
Rp3120
g2760
F31.0
tp3121
a(I7410000
g1
(g5
S'{\x14\xaeG\xe1:6@'
p3122
tp3123
Rp3124
g2760
F14.0
tp3125
a(I7420000
g1
(g5
S'\xcd\xcc\xcc\xcc\xcc\xcc6@'
p3126
tp3127
Rp3128
g2760
F30.0
tp3129
a(I7430000
g1
(g5
S'\xb8\x1e\x85\xebQ\xb86@'
p3130
tp3131
Rp3132
g2760
F26.0
tp3133
a(I7440000
g1
(g5
S')\\\x8f\xc2\xf5(6@'
p3134
tp3135
Rp3136
g2760
F0.0
tp3137
a(I7450000
g1
(g5
S'\\\x8f\xc2\xf5(\xdc5@'
p3138
tp3139
Rp3140
g2760
F32.0
tp3141
a(I7460000
g1
(g5
S'=\n\xd7\xa3p=6@'
p3142
tp3143
Rp3144
g2760
F26.0
tp3145
a(I7470000
g1
(g5
S'\x1f\x85\xebQ\xb8^6@'
p3146
tp3147
Rp3148
g2760
F28.0
tp3149
a(I7480000
g1
(g5
S'{\x14\xaeG\xe1\xba6@'
p3150
tp3151
Rp3152
g2760
F46.0
tp3153
a(I7490000
g1
(g5
S'\xa4p=\n\xd7\xe36@'
p3154
tp3155
Rp3156
g2760
F22.0
tp3157
a(I7500000
g1
(g5
S'\n\xd7\xa3p=\xca6@'
p3158
tp3159
Rp3160
g2760
F19.0
tp3161
a(I7510000
g1
(g5
S'q=\n\xd7\xa3\xb06@'
p3162
tp3163
Rp3164
g2760
F36.0
tp3165
a(I7520000
g1
(g5
S'\n\xd7\xa3p=\x8a6@'
p3166
tp3167
Rp3168
g2760
F20.0
tp3169
a(I7530000
g1
(g5
S'\xe1z\x14\xaeGa6@'
p3170
tp3171
Rp3172
g2760
F39.0
tp3173
a(I7540000
g1
(g5
S'\xa4p=\n\xd7\xe36@'
p3174
tp3175
Rp3176
g2760
F77.0
tp3177
a(I7550000
g1
(g5
S'=\n\xd7\xa3p\xbd6@'
p3178
tp3179
Rp3180
g2760
F8.0
tp3181
a(I7560000
g1
(g5
S'\x8f\xc2\xf5(\\\xcf6@'
p3182
tp3183
Rp3184
g2760
F36.0
tp3185
a(I7570000
g1
(g5
S'q=\n\xd7\xa307@'
p3186
tp3187
Rp3188
g2760
F34.0
tp3189
a(I7580000
g1
(g5
S'\xe1z\x14\xaeG!7@'
p3190
tp3191
Rp3192
g2760
F23.0
tp3193
a(I7590000
g1
(g5
S'H\xe1z\x14\xae\x877@'
p3194
tp3195
Rp3196
g2760
F12.0
tp3197
a(I7600000
g1
(g5
S')\\\x8f\xc2\xf5\xe87@'
p3198
tp3199
Rp3200
g2760
F48.0
tp3201
a(I7610000
g1
(g5
S'\xb8\x1e\x85\xebQ\xb87@'
p3202
tp3203
Rp3204
g2760
F13.0
tp3205
a(I7620000
g1
(g5
S'\xd7\xa3p=\n\xd77@'
p3206
tp3207
Rp3208
g2760
F16.0
tp3209
a(I7630000
g1
(g5
S'\xb8\x1e\x85\xebQ\xb87@'
p3210
tp3211
Rp3212
g2760
F3.0
tp3213
a(I7640000
g1
(g5
S'\\\x8f\xc2\xf5(\x9c7@'
p3214
tp3215
Rp3216
g2760
F25.0
tp3217
a(I7650000
g1
(g5
S'\xc3\xf5(\\\x8f\xc27@'
p3218
tp3219
Rp3220
g2760
F15.0
tp3221
a(I7660000
g1
(g5
S'\xecQ\xb8\x1e\x85\xeb7@'
p3222
tp3223
Rp3224
g2760
F18.0
tp3225
a(I7670000
g1
(g5
S'{\x14\xaeG\xe1\xfa7@'
p3226
tp3227
Rp3228
g2760
F34.0
tp3229
a(I7680000
g1
(g5
S'\xb8\x1e\x85\xebQ\xf88@'
p3230
tp3231
Rp3232
g2760
F10.0
tp3233
a(I7690000
g1
(g5
S'{\x14\xaeG\xe1z9@'
p3234
tp3235
Rp3236
g2760
F26.0
tp3237
a(I7700000
g1
(g5
S'\xaeG\xe1z\x14\xee9@'
p3238
tp3239
Rp3240
g2760
F29.0
tp3241
a(I7710000
g1
(g5
S'q=\n\xd7\xa3\xf09@'
p3242
tp3243
Rp3244
g2760
F24.0
tp3245
a(I7720000
g1
(g5
S'\xb8\x1e\x85\xebQ\xf89@'
p3246
tp3247
Rp3248
g2760
F27.0
tp3249
a(I7730000
g1
(g5
S'\xf6(\\\x8f\xc25:@'
p3250
tp3251
Rp3252
g2760
F25.0
tp3253
a(I7740000
g1
(g5
S'\xecQ\xb8\x1e\x85k:@'
p3254
tp3255
Rp3256
g2760
F30.0
tp3257
a(I7750000
g1
(g5
S'\xecQ\xb8\x1e\x85+:@'
p3258
tp3259
Rp3260
g2760
F31.0
tp3261
a(I7760000
g1
(g5
S'\x14\xaeG\xe1z\xd4:@'
p3262
tp3263
Rp3264
g2760
F29.0
tp3265
a(I7770000
g1
(g5
S'\x85\xebQ\xb8\x1e\xc5:@'
p3266
tp3267
Rp3268
g2760
F31.0
tp3269
a(I7780000
g1
(g5
S'\xc3\xf5(\\\x8fB;@'
p3270
tp3271
Rp3272
g2760
F3.0
tp3273
a(I7790000
g1
(g5
S'\xc3\xf5(\\\x8f\x02;@'
p3274
tp3275
Rp3276
g2760
F22.0
tp3277
a(I7800000
g1
(g5
S'{\x14\xaeG\xe1:;@'
p3278
tp3279
Rp3280
g2760
F35.0
tp3281
a(I7810000
g1
(g5
S'R\xb8\x1e\x85\xeb\x11;@'
p3282
tp3283
Rp3284
g2760
F14.0
tp3285
a(I7820000
g1
(g5
S'\x00\x00\x00\x00\x00\x00;@'
p3286
tp3287
Rp3288
g2760
F44.0
tp3289
a(I7830000
g1
(g5
S'333333;@'
p3290
tp3291
Rp3292
g2760
F5.0
tp3293
a(I7840000
g1
(g5
S'{\x14\xaeG\xe1z;@'
p3294
tp3295
Rp3296
g2760
F8.0
tp3297
a(I7850000
g1
(g5
S'33333\xb3;@'
p3298
tp3299
Rp3300
g2760
F32.0
tp3301
a(I7860000
g1
(g5
S'\xf6(\\\x8f\xc25<@'
p3302
tp3303
Rp3304
g1
(g5
S'\xf6(\\\x8f\xc25<@'
p3305
tp3306
Rp3307
F23.0
tp3308
a(I7870000
g1
(g5
S'{\x14\xaeG\xe1\xfa;@'
p3309
tp3310
Rp3311
g3307
F14.0
tp3312
a(I7880000
g1
(g5
S'\x14\xaeG\xe1zT;@'
p3313
tp3314
Rp3315
g3307
F14.0
tp3316
a(I7890000
g1
(g5
S'\xe1z\x14\xaeG\xe1;@'
p3317
tp3318
Rp3319
g3307
F29.0
tp3320
a(I7900000
g1
(g5
S'\xaeG\xe1z\x14\xee;@'
p3321
tp3322
Rp3323
g3307
F40.0
tp3324
a(I7910000
g1
(g5
S'\xb8\x1e\x85\xebQ\xf8;@'
p3325
tp3326
Rp3327
g3307
F17.0
tp3328
a(I7920000
g1
(g5
S'\xb8\x1e\x85\xebQ\xf8;@'
p3329
tp3330
Rp3331
g3307
F29.0
tp3332
a(I7930000
g1
(g5
S'\xb8\x1e\x85\xebQ\xf8;@'
p3333
tp3334
Rp3335
g3307
F5.0
tp3336
a(I7940000
g1
(g5
S'333333;@'
p3337
tp3338
Rp3339
g3307
F12.0
tp3340
a(I7950000
g1
(g5
S'R\xb8\x1e\x85\xeb\xd1;@'
p3341
tp3342
Rp3343
g3307
F39.0
tp3344
a(I7960000
g1
(g5
S'\x9a\x99\x99\x99\x99\xd9;@'
p3345
tp3346
Rp3347
g3307
F3.0
tp3348
a(I7970000
g1
(g5
S'\x1f\x85\xebQ\xb8\xde<@'
p3349
tp3350
Rp3351
g1
(g5
S'\x1f\x85\xebQ\xb8\xde<@'
p3352
tp3353
Rp3354
F93.0
tp3355
a(I7980000
g1
(g5
S'\xc3\xf5(\\\x8f\x02=@'
p3356
tp3357
Rp3358
g1
(g5
S'\xc3\xf5(\\\x8f\x02=@'
p3359
tp3360
Rp3361
F35.0
tp3362
a(I7990000
g1
(g5
S'\xd7\xa3p=\n\x17=@'
p3363
tp3364
Rp3365
g1
(g5
S'\xd7\xa3p=\n\x17=@'
p3366
tp3367
Rp3368
F36.0
tp3369
a(I8000000
g1
(g5
S'fffff&=@'
p3370
tp3371
Rp3372
g1
(g5
S'\xf6(\\\x8f\xc25=@'
p3373
tp3374
Rp3375
F55.0
tp3376
a(I8010000
g1
(g5
S'\xb8\x1e\x85\xebQ\xb8;@'
p3377
tp3378
Rp3379
g3375
F16.0
tp3380
a(I8020000
g1
(g5
S'{\x14\xaeG\xe1\xba;@'
p3381
tp3382
Rp3383
g3375
F45.0
tp3384
a(I8030000
g1
(g5
S'R\xb8\x1e\x85\xeb\x11<@'
p3385
tp3386
Rp3387
g3375
F52.0
tp3388
a(I8040000
g1
(g5
S'\x00\x00\x00\x00\x00\x80;@'
p3389
tp3390
Rp3391
g3375
F11.0
tp3392
a(I8050000
g1
(g5
S'\x8f\xc2\xf5(\\\x8f;@'
p3393
tp3394
Rp3395
g3375
F45.0
tp3396
a(I8060000
g1
(g5
S'\xaeG\xe1z\x14n;@'
p3397
tp3398
Rp3399
g3375
F29.0
tp3400
a(I8070000
g1
(g5
S'\xaeG\xe1z\x14\xae;@'
p3401
tp3402
Rp3403
g3375
F41.0
tp3404
a(I8080000
g1
(g5
S'H\xe1z\x14\xae\x87;@'
p3405
tp3406
Rp3407
g3375
F16.0
tp3408
a(I8090000
g1
(g5
S'R\xb8\x1e\x85\xeb\x11;@'
p3409
tp3410
Rp3411
g3375
F11.0
tp3412
a(I8100000
g1
(g5
S'\x14\xaeG\xe1z\x94;@'
p3413
tp3414
Rp3415
g3375
F46.0
tp3416
a(I8110000
g1
(g5
S'ffffff;@'
p3417
tp3418
Rp3419
g3375
F13.0
tp3420
a(I8120000
g1
(g5
S'=\n\xd7\xa3p};@'
p3421
tp3422
Rp3423
g3375
F29.0
tp3424
a(I8130000
g1
(g5
S'fffff&;@'
p3425
tp3426
Rp3427
g3375
F38.0
tp3428
a(I8140000
g1
(g5
S'{\x14\xaeG\xe1\xfa:@'
p3429
tp3430
Rp3431
g3375
F38.0
tp3432
a(I8150000
g1
(g5
S')\\\x8f\xc2\xf5\xe8:@'
p3433
tp3434
Rp3435
g3375
F32.0
tp3436
a(I8160000
g1
(g5
S'\x9a\x99\x99\x99\x99\xd9:@'
p3437
tp3438
Rp3439
g3375
F25.0
tp3440
a(I8170000
g1
(g5
S'\xb8\x1e\x85\xebQ\xb8:@'
p3441
tp3442
Rp3443
g3375
F29.0
tp3444
a(I8180000
g1
(g5
S'\xa4p=\n\xd7\xa3:@'
p3445
tp3446
Rp3447
g3375
F66.0
tp3448
a(I8190000
g1
(g5
S'\x14\xaeG\xe1zT:@'
p3449
tp3450
Rp3451
g3375
F20.0
tp3452
a(I8200000
g1
(g5
S'\x8f\xc2\xf5(\\\x0f;@'
p3453
tp3454
Rp3455
g3375
F40.0
tp3456
a(I8210000
g1
(g5
S'\xf6(\\\x8f\xc2\xf5:@'
p3457
tp3458
Rp3459
g3375
F9.0
tp3460
a(I8220000
g1
(g5
S'ffffff:@'
p3461
tp3462
Rp3463
g3375
F8.0
tp3464
a(I8230000
g1
(g5
S'\x9a\x99\x99\x99\x99Y:@'
p3465
tp3466
Rp3467
g3375
F30.0
tp3468
a(I8240000
g1
(g5
S'\n\xd7\xa3p=\n:@'
p3469
tp3470
Rp3471
g3375
F13.0
tp3472
a(I8250000
g1
(g5
S'\x85\xebQ\xb8\x1e\x85:@'
p3473
tp3474
Rp3475
g3375
F84.0
tp3476
a(I8260000
g1
(g5
S'\xcd\xcc\xcc\xcc\xcc\xcc:@'
p3477
tp3478
Rp3479
g3375
F42.0
tp3480
a(I8270000
g1
(g5
S'\xc3\xf5(\\\x8f\x02;@'
p3481
tp3482
Rp3483
g3375
F9.0
tp3484
a(I8280000
g1
(g5
S'\xaeG\xe1z\x14\xae:@'
p3485
tp3486
Rp3487
g3375
F24.0
tp3488
a(I8290000
g1
(g5
S'33333\xb3:@'
p3489
tp3490
Rp3491
g3375
F14.0
tp3492
a(I8300000
g1
(g5
S'q=\n\xd7\xa3\xf09@'
p3493
tp3494
Rp3495
g3375
F31.0
tp3496
a(I8310000
g1
(g5
S'fffff&:@'
p3497
tp3498
Rp3499
g3375
F52.0
tp3500
a(I8320000
g1
(g5
S'\x1f\x85\xebQ\xb8^:@'
p3501
tp3502
Rp3503
g3375
F27.0
tp3504
a(I8330000
g1
(g5
S'\x8f\xc2\xf5(\\\x8f:@'
p3505
tp3506
Rp3507
g3375
F38.0
tp3508
a(I8340000
g1
(g5
S'R\xb8\x1e\x85\xeb\xd1:@'
p3509
tp3510
Rp3511
g3375
F14.0
tp3512
a(I8350000
g1
(g5
S'\xecQ\xb8\x1e\x85\xab:@'
p3513
tp3514
Rp3515
g3375
F8.0
tp3516
a(I8360000
g1
(g5
S'\x14\xaeG\xe1zT:@'
p3517
tp3518
Rp3519
g3375
F41.0
tp3520
a(I8370000
g1
(g5
S'\xcd\xcc\xcc\xcc\xcc\x8c:@'
p3521
tp3522
Rp3523
g3375
F18.0
tp3524
a(I8380000
g1
(g5
S'\xb8\x1e\x85\xebQx:@'
p3525
tp3526
Rp3527
g3375
F14.0
tp3528
a(I8390000
g1
(g5
S'H\xe1z\x14\xae\x07:@'
p3529
tp3530
Rp3531
g3375
F8.0
tp3532
a(I8400000
g1
(g5
S'\\\x8f\xc2\xf5(\x9c9@'
p3533
tp3534
Rp3535
g3375
F3.0
tp3536
a(I8410000
g1
(g5
S'H\xe1z\x14\xaeG:@'
p3537
tp3538
Rp3539
g3375
F92.0
tp3540
a(I8420000
g1
(g5
S'\x9a\x99\x99\x99\x99\x99:@'
p3541
tp3542
Rp3543
g3375
F39.0
tp3544
a(I8430000
g1
(g5
S'\x8f\xc2\xf5(\\\x0f:@'
p3545
tp3546
Rp3547
g3375
F7.0
tp3548
a(I8440000
g1
(g5
S'{\x14\xaeG\xe1\xfa9@'
p3549
tp3550
Rp3551
g3375
F8.0
tp3552
a(I8450000
g1
(g5
S'\xb8\x1e\x85\xebQ\xf89@'
p3553
tp3554
Rp3555
g3375
F16.0
tp3556
a(I8460000
g1
(g5
S'\x00\x00\x00\x00\x00\x00:@'
p3557
tp3558
Rp3559
g3375
F23.0
tp3560
a(I8470000
g1
(g5
S'\xaeG\xe1z\x14\xae9@'
p3561
tp3562
Rp3563
g3375
F21.0
tp3564
a(I8480000
g1
(g5
S'\x00\x00\x00\x00\x00\x809@'
p3565
tp3566
Rp3567
g3375
F0.0
tp3568
a(I8490000
g1
(g5
S'\xb8\x1e\x85\xebQx9@'
p3569
tp3570
Rp3571
g3375
F21.0
tp3572
a(I8500000
g1
(g5
S'\x1f\x85\xebQ\xb8\xde9@'
p3573
tp3574
Rp3575
g3375
F43.0
tp3576
a(I8510000
g1
(g5
S'H\xe1z\x14\xae\xc79@'
p3577
tp3578
Rp3579
g3375
F20.0
tp3580
a(I8520000
g1
(g5
S'\x14\xaeG\xe1z\xd49@'
p3581
tp3582
Rp3583
g3375
F55.0
tp3584
a(I8530000
g1
(g5
S'\xecQ\xb8\x1e\x85\xeb9@'
p3585
tp3586
Rp3587
g3375
F37.0
tp3588
a(I8540000
g1
(g5
S'\xecQ\xb8\x1e\x85\xab9@'
p3589
tp3590
Rp3591
g3375
F16.0
tp3592
a(I8550000
g1
(g5
S'\xf6(\\\x8f\xc2u:@'
p3593
tp3594
Rp3595
g3375
F1.0
tp3596
a(I8560000
g1
(g5
S'\x14\xaeG\xe1z\xd49@'
p3597
tp3598
Rp3599
g3375
F5.0
tp3600
a(I8570000
g1
(g5
S'\x8f\xc2\xf5(\\O:@'
p3601
tp3602
Rp3603
g3375
F76.0
tp3604
a(I8580000
g1
(g5
S'\xaeG\xe1z\x14.:@'
p3605
tp3606
Rp3607
g3375
F37.0
tp3608
a(I8590000
g1
(g5
S'\x9a\x99\x99\x99\x99\x999@'
p3609
tp3610
Rp3611
g3375
F22.0
tp3612
a(I8600000
g1
(g5
S'fffff\xa69@'
p3613
tp3614
Rp3615
g3375
F23.0
tp3616
a(I8610000
g1
(g5
S'q=\n\xd7\xa3\xf09@'
p3617
tp3618
Rp3619
g3375
F25.0
tp3620
a(I8620000
g1
(g5
S'\xe1z\x14\xaeGa:@'
p3621
tp3622
Rp3623
g3375
F42.0
tp3624
a(I8630000
g1
(g5
S'\xecQ\xb8\x1e\x85\xeb:@'
p3625
tp3626
Rp3627
g3375
F25.0
tp3628
a(I8640000
g1
(g5
S'\x14\xaeG\xe1z\xd4:@'
p3629
tp3630
Rp3631
g3375
F10.0
tp3632
a(I8650000
g1
(g5
S'\x85\xebQ\xb8\x1e\x85:@'
p3633
tp3634
Rp3635
g3375
F38.0
tp3636
a(I8660000
g1
(g5
S'\x9a\x99\x99\x99\x99Y:@'
p3637
tp3638
Rp3639
g3375
F29.0
tp3640
a(I8670000
g1
(g5
S')\\\x8f\xc2\xf5\xa8:@'
p3641
tp3642
Rp3643
g3375
F48.0
tp3644
a(I8680000
g1
(g5
S'33333s:@'
p3645
tp3646
Rp3647
g3375
F9.0
tp3648
a(I8690000
g1
(g5
S'\xa4p=\n\xd7\xa3:@'
p3649
tp3650
Rp3651
g3375
F1.0
tp3652
a(I8700000
g1
(g5
S'33333\xb3:@'
p3653
tp3654
Rp3655
g3375
F22.0
tp3656
a(I8710000
g1
(g5
S'=\n\xd7\xa3p\xfd9@'
p3657
tp3658
Rp3659
g3375
F10.0
tp3660
a(I8720000
g1
(g5
S'fffff\xa6:@'
p3661
tp3662
Rp3663
g3375
F24.0
tp3664
a(I8730000
g1
(g5
S'\x1f\x85\xebQ\xb8\xde:@'
p3665
tp3666
Rp3667
g3375
F30.0
tp3668
a(I8740000
g1
(g5
S'\x00\x00\x00\x00\x00\xc0;@'
p3669
tp3670
Rp3671
g3375
F24.0
tp3672
a(I8750000
g1
(g5
S'\xaeG\xe1z\x14\xee:@'
p3673
tp3674
Rp3675
g3375
F20.0
tp3676
a(I8760000
g1
(g5
S'\x9a\x99\x99\x99\x99\x19;@'
p3677
tp3678
Rp3679
g3375
F27.0
tp3680
a(I8770000
g1
(g5
S'\\\x8f\xc2\xf5(\xdc:@'
p3681
tp3682
Rp3683
g3375
F37.0
tp3684
a(I8780000
g1
(g5
S'\xc3\xf5(\\\x8fB;@'
p3685
tp3686
Rp3687
g3375
F39.0
tp3688
a(I8790000
g1
(g5
S'\xcd\xcc\xcc\xcc\xccL;@'
p3689
tp3690
Rp3691
g3375
F25.0
tp3692
a(I8800000
g1
(g5
S'{\x14\xaeG\xe1\xba;@'
p3693
tp3694
Rp3695
g3375
F29.0
tp3696
a(I8810000
g1
(g5
S'\xc3\xf5(\\\x8f\xc2;@'
p3697
tp3698
Rp3699
g3375
F7.0
tp3700
a(I8820000
g1
(g5
S'\xc3\xf5(\\\x8f\x02<@'
p3701
tp3702
Rp3703
g3375
F15.0
tp3704
a(I8830000
g1
(g5
S'\x85\xebQ\xb8\x1e\xc5;@'
p3705
tp3706
Rp3707
g3375
F26.0
tp3708
a(I8840000
g1
(g5
S'H\xe1z\x14\xaeG;@'
p3709
tp3710
Rp3711
g3375
F21.0
tp3712
a(I8850000
g1
(g5
S'ffffff;@'
p3713
tp3714
Rp3715
g3375
F43.0
tp3716
a(I8860000
g1
(g5
S'\xf6(\\\x8f\xc2\xb5:@'
p3717
tp3718
Rp3719
g3375
F16.0
tp3720
a(I8870000
g1
(g5
S'ffffff:@'
p3721
tp3722
Rp3723
g3375
F28.0
tp3724
a(I8880000
g1
(g5
S'\xb8\x1e\x85\xebQ\xb89@'
p3725
tp3726
Rp3727
g3375
F12.0
tp3728
a(I8890000
g1
(g5
S'R\xb8\x1e\x85\xeb\x91:@'
p3729
tp3730
Rp3731
g3375
F17.0
tp3732
a(I8900000
g1
(g5
S'fffff\xa6:@'
p3733
tp3734
Rp3735
g3375
F18.0
tp3736
a(I8910000
g1
(g5
S'\xd7\xa3p=\n\x97:@'
p3737
tp3738
Rp3739
g3375
F30.0
tp3740
a(I8920000
g1
(g5
S'\xd7\xa3p=\n\xd7:@'
p3741
tp3742
Rp3743
g3375
F14.0
tp3744
a(I8930000
g1
(g5
S'\x14\xaeG\xe1z\x14;@'
p3745
tp3746
Rp3747
g3375
F38.0
tp3748
a(I8940000
g1
(g5
S'\xe1z\x14\xaeG!;@'
p3749
tp3750
Rp3751
g3375
F30.0
tp3752
a(I8950000
g1
(g5
S'\n\xd7\xa3p=J;@'
p3753
tp3754
Rp3755
g3375
F41.0
tp3756
a(I8960000
g1
(g5
S'q=\n\xd7\xa30;@'
p3757
tp3758
Rp3759
g3375
F38.0
tp3760
a(I8970000
g1
(g5
S'{\x14\xaeG\xe1z;@'
p3761
tp3762
Rp3763
g3375
F43.0
tp3764
a(I8980000
g1
(g5
S'\x8f\xc2\xf5(\\O;@'
p3765
tp3766
Rp3767
g3375
F26.0
tp3768
a(I8990000
g1
(g5
S'=\n\xd7\xa3p\xfd:@'
p3769
tp3770
Rp3771
g3375
F18.0
tp3772
a(I9000000
g1
(g5
S'H\xe1z\x14\xae\x07;@'
p3773
tp3774
Rp3775
g3375
F36.0
tp3776
a(I9010000
g1
(g5
S'\x8f\xc2\xf5(\\\xcf:@'
p3777
tp3778
Rp3779
g3375
F36.0
tp3780
a(I9020000
g1
(g5
S'\xaeG\xe1z\x14\xee:@'
p3781
tp3782
Rp3783
g3375
F18.0
tp3784
a(I9030000
g1
(g5
S'\x1f\x85\xebQ\xb8\x1e;@'
p3785
tp3786
Rp3787
g3375
F21.0
tp3788
a(I9040000
g1
(g5
S')\\\x8f\xc2\xf5\xa8;@'
p3789
tp3790
Rp3791
g3375
F17.0
tp3792
a(I9050000
g1
(g5
S'\\\x8f\xc2\xf5(\\;@'
p3793
tp3794
Rp3795
g3375
F44.0
tp3796
a(I9060000
g1
(g5
S'=\n\xd7\xa3p=;@'
p3797
tp3798
Rp3799
g3375
F33.0
tp3800
a(I9070000
g1
(g5
S'ffffff:@'
p3801
tp3802
Rp3803
g3375
F28.0
tp3804
a(I9080000
g1
(g5
S')\\\x8f\xc2\xf5\xa8:@'
p3805
tp3806
Rp3807
g3375
F16.0
tp3808
a(I9090000
g1
(g5
S'\xf6(\\\x8f\xc2u:@'
p3809
tp3810
Rp3811
g3375
F18.0
tp3812
a(I9100000
g1
(g5
S'\xf6(\\\x8f\xc2\xf5:@'
p3813
tp3814
Rp3815
g3375
F33.0
tp3816
a(I9110000
g1
(g5
S'q=\n\xd7\xa3\xb0:@'
p3817
tp3818
Rp3819
g3375
F29.0
tp3820
a(I9120000
g1
(g5
S'ffffff:@'
p3821
tp3822
Rp3823
g3375
F23.0
tp3824
a(I9130000
g1
(g5
S'\xb8\x1e\x85\xebQx:@'
p3825
tp3826
Rp3827
g3375
F30.0
tp3828
a(I9140000
g1
(g5
S'\xc3\xf5(\\\x8f\x02:@'
p3829
tp3830
Rp3831
g3375
F28.0
tp3832
a(I9150000
g1
(g5
S'\xb8\x1e\x85\xebQ\xf89@'
p3833
tp3834
Rp3835
g3375
F26.0
tp3836
a(I9160000
g1
(g5
S')\\\x8f\xc2\xf5\xe89@'
p3837
tp3838
Rp3839
g3375
F3.0
tp3840
a(I9170000
g1
(g5
S'q=\n\xd7\xa3\xb0:@'
p3841
tp3842
Rp3843
g3375
F54.0
tp3844
a(I9180000
g1
(g5
S'\xecQ\xb8\x1e\x85\xab:@'
p3845
tp3846
Rp3847
g3375
F20.0
tp3848
a(I9190000
g1
(g5
S'\x1f\x85\xebQ\xb8\xde:@'
p3849
tp3850
Rp3851
g3375
F30.0
tp3852
a(I9200000
g1
(g5
S'33333\xf3:@'
p3853
tp3854
Rp3855
g3375
F28.0
tp3856
a(I9210000
g1
(g5
S')\\\x8f\xc2\xf5\xe8:@'
p3857
tp3858
Rp3859
g3375
F27.0
tp3860
a(I9220000
g1
(g5
S'H\xe1z\x14\xae\xc7:@'
p3861
tp3862
Rp3863
g3375
F33.0
tp3864
a(I9230000
g1
(g5
S'\xaeG\xe1z\x14\xae:@'
p3865
tp3866
Rp3867
g3375
F17.0
tp3868
a(I9240000
g1
(g5
S'\xecQ\xb8\x1e\x85k:@'
p3869
tp3870
Rp3871
g3375
F30.0
tp3872
a(I9250000
g1
(g5
S'\xecQ\xb8\x1e\x85+:@'
p3873
tp3874
Rp3875
g3375
F29.0
tp3876
a(I9260000
g1
(g5
S'\n\xd7\xa3p=\xca9@'
p3877
tp3878
Rp3879
g3375
F6.0
tp3880
a(I9270000
g1
(g5
S'=\n\xd7\xa3p}9@'
p3881
tp3882
Rp3883
g3375
F15.0
tp3884
a(I9280000
g1
(g5
S'\xe1z\x14\xaeG!9@'
p3885
tp3886
Rp3887
g3375
F9.0
tp3888
a(I9290000
g1
(g5
S'\xc3\xf5(\\\x8f\x828@'
p3889
tp3890
Rp3891
g3375
F9.0
tp3892
a(I9300000
g1
(g5
S'\x00\x00\x00\x00\x00\x008@'
p3893
tp3894
Rp3895
g3375
F23.0
tp3896
a(I9310000
g1
(g5
S'\xf6(\\\x8f\xc258@'
p3897
tp3898
Rp3899
g3375
F19.0
tp3900
a(I9320000
g1
(g5
S'\xd7\xa3p=\nW8@'
p3901
tp3902
Rp3903
g3375
F1.0
tp3904
a(I9330000
g1
(g5
S'\xd7\xa3p=\n\x178@'
p3905
tp3906
Rp3907
g3375
F26.0
tp3908
a(I9340000
g1
(g5
S'=\n\xd7\xa3p\xfd7@'
p3909
tp3910
Rp3911
g3375
F14.0
tp3912
a(I9350000
g1
(g5
S'\x1f\x85\xebQ\xb8^7@'
p3913
tp3914
Rp3915
g3375
F6.0
tp3916
a(I9360000
g1
(g5
S'R\xb8\x1e\x85\xebQ7@'
p3917
tp3918
Rp3919
g3375
F29.0
tp3920
a(I9370000
g1
(g5
S'\x85\xebQ\xb8\x1e\xc57@'
p3921
tp3922
Rp3923
g3375
F50.0
tp3924
a(I9380000
g1
(g5
S'\xcd\xcc\xcc\xcc\xcc\xcc7@'
p3925
tp3926
Rp3927
g3375
F3.0
tp3928
a(I9390000
g1
(g5
S'q=\n\xd7\xa3\xb07@'
p3929
tp3930
Rp3931
g3375
F34.0
tp3932
a(I9400000
g1
(g5
S'33333\xf37@'
p3933
tp3934
Rp3935
g3375
F31.0
tp3936
a(I9410000
g1
(g5
S'\xc3\xf5(\\\x8f\xc27@'
p3937
tp3938
Rp3939
g3375
F25.0
tp3940
a(I9420000
g1
(g5
S'\x8f\xc2\xf5(\\\x0f8@'
p3941
tp3942
Rp3943
g3375
F33.0
tp3944
a(I9430000
g1
(g5
S'\x8f\xc2\xf5(\\\x0f8@'
p3945
tp3946
Rp3947
g3375
F27.0
tp3948
a(I9440000
g1
(g5
S'\x1f\x85\xebQ\xb8\xde7@'
p3949
tp3950
Rp3951
g3375
F26.0
tp3952
a(I9450000
g1
(g5
S'\xecQ\xb8\x1e\x85+8@'
p3953
tp3954
Rp3955
g3375
F12.0
tp3956
a(I9460000
g1
(g5
S'\x14\xaeG\xe1zT8@'
p3957
tp3958
Rp3959
g3375
F35.0
tp3960
a(I9470000
g1
(g5
S'\xc3\xf5(\\\x8f\x828@'
p3961
tp3962
Rp3963
g3375
F32.0
tp3964
a(I9480000
g1
(g5
S'\x14\xaeG\xe1z\x948@'
p3965
tp3966
Rp3967
g3375
F23.0
tp3968
a(I9490000
g1
(g5
S'33333\xb38@'
p3969
tp3970
Rp3971
g3375
F35.0
tp3972
a(I9500000
g1
(g5
S'\xa4p=\n\xd7\xe38@'
p3973
tp3974
Rp3975
g3375
F31.0
tp3976
a(I9510000
g1
(g5
S'\x9a\x99\x99\x99\x99\x198@'
p3977
tp3978
Rp3979
g3375
F0.0
tp3980
a(I9520000
g1
(g5
S'{\x14\xaeG\xe1:8@'
p3981
tp3982
Rp3983
g3375
F46.0
tp3984
a(I9530000
g1
(g5
S'q=\n\xd7\xa308@'
p3985
tp3986
Rp3987
g3375
F15.0
tp3988
a(I9540000
g1
(g5
S'\xd7\xa3p=\n\xd77@'
p3989
tp3990
Rp3991
g3375
F8.0
tp3992
a(I9550000
g1
(g5
S'\xa4p=\n\xd7\xe37@'
p3993
tp3994
Rp3995
g3375
F31.0
tp3996
a(I9560000
g1
(g5
S'\xa4p=\n\xd7c8@'
p3997
tp3998
Rp3999
g3375
F37.0
tp4000
a(I9570000
g1
(g5
S'\n\xd7\xa3p=\x8a8@'
p4001
tp4002
Rp4003
g3375
F4.0
tp4004
a(I9580000
g1
(g5
S'\xe1z\x14\xaeG\xa18@'
p4005
tp4006
Rp4007
g3375
F38.0
tp4008
a(I9590000
g1
(g5
S'fffff\xa68@'
p4009
tp4010
Rp4011
g3375
F26.0
tp4012
a(I9600000
g1
(g5
S'33333\xf38@'
p4013
tp4014
Rp4015
g3375
F20.0
tp4016
a(I9610000
g1
(g5
S'H\xe1z\x14\xae\x878@'
p4017
tp4018
Rp4019
g3375
F24.0
tp4020
a(I9620000
g1
(g5
S'=\n\xd7\xa3p}8@'
p4021
tp4022
Rp4023
g3375
F0.0
tp4024
a(I9630000
g1
(g5
S'H\xe1z\x14\xae\x878@'
p4025
tp4026
Rp4027
g3375
F0.0
tp4028
a(I9640000
g1
(g5
S'33333s8@'
p4029
tp4030
Rp4031
g3375
F50.0
tp4032
a(I9650000
g1
(g5
S')\\\x8f\xc2\xf5h8@'
p4033
tp4034
Rp4035
g3375
F24.0
tp4036
a(I9660000
g1
(g5
S'\xd7\xa3p=\nW8@'
p4037
tp4038
Rp4039
g3375
F9.0
tp4040
a(I9670000
g1
(g5
S'fffff\xe67@'
p4041
tp4042
Rp4043
g3375
F24.0
tp4044
a(I9680000
g1
(g5
S'\xf6(\\\x8f\xc2u8@'
p4045
tp4046
Rp4047
g3375
F40.0
tp4048
a(I9690000
g1
(g5
S'\x1f\x85\xebQ\xb8\xde8@'
p4049
tp4050
Rp4051
g3375
F33.0
tp4052
a(I9700000
g1
(g5
S'\x8f\xc2\xf5(\\\xcf8@'
p4053
tp4054
Rp4055
g3375
F32.0
tp4056
a(I9710000
g1
(g5
S'\x00\x00\x00\x00\x00\xc08@'
p4057
tp4058
Rp4059
g3375
F32.0
tp4060
a(I9720000
g1
(g5
S'=\n\xd7\xa3p}8@'
p4061
tp4062
Rp4063
g3375
F23.0
tp4064
a(I9730000
g1
(g5
S'\xb8\x1e\x85\xebQ88@'
p4065
tp4066
Rp4067
g3375
F14.0
tp4068
a(I9740000
g1
(g5
S'\xf6(\\\x8f\xc258@'
p4069
tp4070
Rp4071
g3375
F21.0
tp4072
a(I9750000
g1
(g5
S')\\\x8f\xc2\xf5h8@'
p4073
tp4074
Rp4075
g3375
F36.0
tp4076
a(I9760000
g1
(g5
S'\xd7\xa3p=\n\xd77@'
p4077
tp4078
Rp4079
g3375
F7.0
tp4080
a(I9770000
g1
(g5
S'\xf6(\\\x8f\xc2\xb57@'
p4081
tp4082
Rp4083
g3375
F22.0
tp4084
a(I9780000
g1
(g5
S'33333s7@'
p4085
tp4086
Rp4087
g3375
F14.0
tp4088
a(I9790000
g1
(g5
S'\xb8\x1e\x85\xebQ87@'
p4089
tp4090
Rp4091
g3375
F1.0
tp4092
a(I9800000
g1
(g5
S'\n\xd7\xa3p=\n7@'
p4093
tp4094
Rp4095
g3375
F17.0
tp4096
a(I9810000
g1
(g5
S'\n\xd7\xa3p=\xca6@'
p4097
tp4098
Rp4099
g3375
F24.0
tp4100
a(I9820000
g1
(g5
S'\x1f\x85\xebQ\xb8^7@'
p4101
tp4102
Rp4103
g3375
F40.0
tp4104
a(I9830000
g1
(g5
S'fffff&7@'
p4105
tp4106
Rp4107
g3375
F26.0
tp4108
a(I9840000
g1
(g5
S'\\\x8f\xc2\xf5(\x9c6@'
p4109
tp4110
Rp4111
g3375
F0.0
tp4112
a(I9850000
g1
(g5
S'ffffff6@'
p4113
tp4114
Rp4115
g3375
F18.0
tp4116
a(I9860000
g1
(g5
S'\x85\xebQ\xb8\x1e\xc55@'
p4117
tp4118
Rp4119
g3375
F0.0
tp4120
a(I9870000
g1
(g5
S'=\n\xd7\xa3p\xbd5@'
p4121
tp4122
Rp4123
g3375
F22.0
tp4124
a(I9880000
g1
(g5
S'ffffff6@'
p4125
tp4126
Rp4127
g3375
F26.0
tp4128
a(I9890000
g1
(g5
S'\xe1z\x14\xaeG\xe15@'
p4129
tp4130
Rp4131
g3375
F24.0
tp4132
a(I9900000
g1
(g5
S'R\xb8\x1e\x85\xeb\x115@'
p4133
tp4134
Rp4135
g3375
F14.0
tp4136
a(I9910000
g1
(g5
S'\x8f\xc2\xf5(\\O5@'
p4137
tp4138
Rp4139
g3375
F18.0
tp4140
a(I9920000
g1
(g5
S'\x9a\x99\x99\x99\x99\xd94@'
p4141
tp4142
Rp4143
g3375
F18.0
tp4144
a(I9930000
g1
(g5
S'\xf6(\\\x8f\xc2u4@'
p4145
tp4146
Rp4147
g3375
F19.0
tp4148
a(I9940000
g1
(g5
S'\n\xd7\xa3p=\xca4@'
p4149
tp4150
Rp4151
g3375
F29.0
tp4152
a(I9950000
g1
(g5
S'fffff\xe64@'
p4153
tp4154
Rp4155
g3375
F36.0
tp4156
a(I9960000
g1
(g5
S'\x9a\x99\x99\x99\x99\x195@'
p4157
tp4158
Rp4159
g3375
F38.0
tp4160
a(I9970000
g1
(g5
S'33333s5@'
p4161
tp4162
Rp4163
g3375
F5.0
tp4164
a(I9980000
g1
(g5
S'\xecQ\xb8\x1e\x85\xab4@'
p4165
tp4166
Rp4167
g3375
F5.0
tp4168
a(I9983323
g1
(g5
S'\xaeG\xe1z\x14n4@'
p4169
tp4170
Rp4171
g3375
F0.0
tp4172
a.(lp0
F0.0
aF0.0
aF0.0
aF0.0
aF0.0
aF0.0
aF0.0
aF0.0
aF0.0
aF0.0
aF0.0
aF0.0
aF0.0
aF0.0
aF0.0
aF0.0
aF0.0
aF0.0
aF0.0
aF0.0
aF0.0
aF0.0
aF0.0
aF0.0
aF0.0
aF0.0
aF0.0
aF0.0
aF0.0
aF0.0
aF0.0
aF0.0
aF0.0
aF0.0
aF0.0
aF0.0
aF0.0
aF0.0
aF0.0
aF0.0
aF0.0
aF0.0
aF0.0
aF0.0
aF0.0
aF0.0
aF0.0
aF0.0
aF0.0
aF0.0
aF0.0
aF0.0
aF0.0
aF0.0
aF0.0
aF0.0
aF0.0
aF0.0
aF0.0
aF0.0
aF0.0
aF0.0
aF0.0
aF0.0
aF0.0
aF0.0
aF0.0
aF0.0
aF0.0
aF0.0
aF0.0
aF0.0
aF0.0
aF0.0
aF0.0
aF0.0
aF0.0
aF0.0
aF0.0
aF0.0
aF0.0
aF0.0
aF0.0
aF0.0
aF0.0
aF0.0
aF0.0
aF0.0
aF0.0
aF0.0
aF0.0
aF0.0
aF0.0
aF0.0
aF0.0
aF0.0
aF0.0
aF0.0
aF0.0
aF0.0
aF0.0
aF0.0
aF0.0
aF0.0
aF0.0
aF0.0
aF0.0
aF0.0
aF0.0
aF0.0
aF0.0
aF0.0
aF0.0
aF0.0
aF0.0
aF0.0
aF0.0
aF0.0
aF0.0
aF0.0
aF0.0
aF0.0
aF0.0
aF0.0
aF0.0
aF0.0
aF0.0
aF0.0
aF0.0
aF0.0
aF0.0
aF0.0
aF0.0
aF0.0
aF0.0
aF0.0
aF0.0
aF0.0
aF0.0
aF0.0
aF0.0
aF0.0
aF0.0
aF0.0
aF0.0
aF0.0
aF0.0
aF0.0
aF0.0
aF0.0
aF0.0
aF0.0
aF0.0
aF0.0
aF0.0
aF0.0
aF0.0
aF0.0
aF0.0
aF0.0
aF0.0
aF0.0
aF0.0
aF0.0
aF0.0
aF0.0
aF0.0
aF0.0
aF0.0
aF0.0
aF0.0
aF0.0
aF0.0
aF0.0
aF0.0
aF0.0
aF0.0
aF0.0
aF0.0
aF0.0
aF0.0
aF0.0
aF0.0
aF0.0
aF0.0
aF0.0
aF0.0
aF0.0
aF0.0
aF0.0
aF0.0
aF0.0
aF0.0
aF0.0
aF0.0
aF0.0
aF1.0
aF0.0
aF0.0
aF0.0
aF0.0
aF0.0
aF0.0
aF0.0
aF0.0
aF0.0
aF0.0
aF0.0
aF0.0
aF0.0
aF0.0
aF0.0
aF0.0
aF0.0
aF0.0
aF0.0
aF0.0
aF0.0
aF0.0
aF0.0
aF0.0
aF0.0
aF0.0
aF0.0
aF0.0
aF0.0
aF0.0
aF0.0
aF0.0
aF0.0
aF0.0
aF0.0
aF0.0
aF0.0
aF0.0
aF0.0
aF0.0
aF0.0
aF0.0
aF0.0
aF0.0
aF0.0
aF0.0
aF0.0
aF0.0
aF0.0
aF0.0
aF0.0
aF0.0
aF0.0
aF0.0
aF0.0
aF0.0
aF0.0
aF0.0
aF0.0
aF0.0
aF4.0
aF0.0
aF0.0
aF0.0
aF0.0
aF0.0
aF0.0
aF0.0
aF5.0
aF0.0
aF0.0
aF1.0
aF0.0
aF0.0
aF0.0
aF0.0
aF0.0
aF0.0
aF0.0
aF0.0
aF0.0
aF0.0
aF0.0
aF0.0
aF0.0
aF0.0
aF0.0
aF0.0
aF0.0
aF0.0
aF0.0
aF0.0
aF0.0
aF0.0
aF0.0
aF3.0
aF0.0
aF1.0
aF0.0
aF0.0
aF0.0
aF0.0
aF0.0
aF0.0
aF0.0
aF0.0
aF1.0
aF0.0
aF0.0
aF0.0
aF0.0
aF0.0
aF0.0
aF0.0
aF4.0
aF0.0
aF0.0
aF5.0
aF0.0
aF0.0
aF0.0
aF0.0
aF0.0
aF0.0
aF0.0
aF0.0
aF0.0
aF0.0
aF0.0
aF0.0
aF0.0
aF0.0
aF0.0
aF0.0
aF0.0
aF0.0
aF0.0
aF0.0
aF0.0
aF0.0
aF0.0
aF0.0
aF0.0
aF0.0
aF0.0
aF0.0
aF0.0
aF0.0
aF0.0
aF0.0
aF0.0
aF0.0
aF0.0
aF2.0
aF0.0
aF0.0
aF0.0
aF0.0
aF0.0
aF0.0
aF0.0
aF0.0
aF0.0
aF0.0
aF0.0
aF0.0
aF0.0
aF0.0
aF0.0
aF0.0
aF0.0
aF0.0
aF0.0
aF0.0
aF0.0
aF0.0
aF0.0
aF0.0
aF0.0
aF1.0
aF0.0
aF0.0
aF0.0
aF0.0
aF0.0
aF0.0
aF0.0
aF0.0
aF0.0
aF0.0
aF0.0
aF0.0
aF0.0
aF0.0
aF0.0
aF0.0
aF0.0
aF0.0
aF0.0
aF0.0
aF1.0
aF0.0
aF0.0
aF0.0
aF0.0
aF0.0
aF0.0
aF0.0
aF0.0
aF0.0
aF0.0
aF0.0
aF0.0
aF0.0
aF0.0
aF0.0
aF0.0
aF0.0
aF0.0
aF1.0
aF0.0
aF0.0
aF0.0
aF0.0
aF0.0
aF0.0
aF0.0
aF0.0
aF0.0
aF0.0
aF0.0
aF0.0
aF0.0
aF0.0
aF0.0
aF0.0
aF0.0
aF0.0
aF0.0
aF0.0
aF0.0
aF1.0
aF0.0
aF0.0
aF0.0
aF0.0
aF0.0
aF0.0
aF0.0
aF0.0
aF0.0
aF0.0
aF0.0
aF0.0
aF0.0
aF0.0
aF0.0
aF0.0
aF0.0
aF0.0
aF0.0
aF0.0
aF0.0
aF0.0
aF0.0
aF0.0
aF0.0
aF0.0
aF0.0
aF0.0
aF0.0
aF0.0
aF0.0
aF1.0
aF0.0
aF0.0
aF0.0
aF0.0
aF0.0
aF0.0
aF0.0
aF0.0
aF0.0
aF0.0
aF0.0
aF0.0
aF0.0
aF0.0
aF0.0
aF0.0
aF0.0
aF0.0
aF0.0
aF0.0
aF0.0
aF0.0
aF0.0
aF0.0
aF0.0
aF0.0
aF0.0
aF0.0
aF0.0
aF0.0
aF0.0
aF0.0
aF0.0
aF0.0
aF0.0
aF0.0
aF0.0
aF0.0
aF0.0
aF0.0
aF0.0
aF1.0
aF0.0
aF0.0
aF0.0
aF0.0
aF0.0
aF0.0
aF0.0
aF0.0
aF0.0
aF0.0
aF2.0
aF0.0
aF0.0
aF0.0
aF0.0
aF0.0
aF0.0
aF0.0
aF0.0
aF0.0
aF0.0
aF0.0
aF0.0
aF0.0
aF0.0
aF0.0
aF1.0
aF0.0
aF0.0
aF0.0
aF0.0
aF0.0
aF0.0
aF0.0
aF2.0
aF0.0
aF0.0
aF0.0
aF0.0
aF0.0
aF0.0
aF0.0
aF0.0
aF0.0
aF0.0
aF0.0
aF0.0
aF0.0
aF0.0
aF0.0
aF0.0
aF0.0
aF0.0
aF0.0
aF0.0
aF0.0
aF0.0
aF0.0
aF0.0
aF0.0
aF1.0
aF0.0
aF0.0
aF0.0
aF0.0
aF0.0
aF0.0
aF0.0
aF0.0
aF0.0
aF0.0
aF0.0
aF0.0
aF0.0
aF0.0
aF0.0
aF0.0
aF1.0
aF0.0
aF0.0
aF0.0
aF0.0
aF1.0
aF0.0
aF0.0
aF0.0
aF0.0
aF0.0
aF0.0
aF0.0
aF0.0
aF0.0
aF0.0
aF1.0
aF0.0
aF0.0
aF0.0
aF0.0
aF0.0
aF0.0
aF0.0
aF0.0
aF0.0
aF1.0
aF0.0
aF0.0
aF0.0
aF0.0
aF0.0
aF0.0
aF0.0
aF0.0
aF0.0
aF0.0
aF0.0
aF0.0
aF0.0
aF0.0
aF0.0
aF0.0
aF0.0
aF0.0
aF0.0
aF0.0
aF0.0
aF0.0
aF5.0
aF0.0
aF0.0
aF0.0
aF0.0
aF0.0
aF0.0
aF0.0
aF0.0
aF0.0
aF1.0
aF0.0
aF0.0
aF0.0
aF0.0
aF0.0
aF0.0
aF0.0
aF0.0
aF0.0
aF0.0
aF0.0
aF0.0
aF0.0
aF0.0
aF0.0
aF0.0
aF0.0
aF0.0
aF0.0
aF0.0
aF0.0
aF0.0
aF0.0
aF0.0
aF0.0
aF0.0
aF0.0
aF0.0
aF0.0
aF0.0
aF1.0
aF0.0
aF0.0
aF0.0
aF0.0
aF0.0
aF0.0
aF0.0
aF0.0
aF0.0
aF0.0
aF0.0
aF0.0
aF0.0
aF0.0
aF0.0
aF0.0
aF0.0
aF0.0
aF0.0
aF0.0
aF0.0
aF0.0
aF0.0
aF0.0
aF0.0
aF0.0
aF0.0
aF0.0
aF1.0
aF0.0
aF1.0
aF0.0
aF0.0
aF0.0
aF0.0
aF0.0
aF0.0
aF0.0
aF0.0
aF0.0
aF0.0
aF0.0
aF1.0
aF0.0
aF0.0
aF0.0
aF0.0
aF0.0
aF0.0
aF0.0
aF0.0
aF0.0
aF0.0
aF0.0
aF0.0
aF0.0
aF0.0
aF0.0
aF0.0
aF0.0
aF0.0
aF0.0
aF0.0
aF0.0
aF0.0
aF1.0
aF0.0
aF0.0
aF0.0
aF0.0
aF0.0
aF0.0
aF0.0
aF0.0
aF0.0
aF0.0
aF0.0
aF0.0
aF0.0
aF0.0
aF0.0
aF0.0
aF0.0
aF0.0
aF0.0
aF0.0
aF1.0
aF0.0
aF0.0
aF0.0
aF0.0
aF0.0
aF0.0
aF0.0
aF0.0
aF0.0
aF0.0
aF1.0
aF0.0
aF0.0
aF0.0
aF0.0
aF0.0
aF0.0
aF0.0
aF0.0
aF0.0
aF0.0
aF0.0
aF0.0
aF0.0
aF0.0
aF0.0
aF0.0
aF1.0
aF0.0
aF0.0
aF0.0
aF0.0
aF0.0
aF0.0
aF0.0
aF0.0
aF0.0
aF0.0
aF0.0
aF0.0
aF0.0
aF0.0
aF0.0
aF0.0
aF0.0
aF0.0
aF0.0
aF0.0
aF0.0
aF0.0
aF0.0
aF0.0
aF0.0
aF0.0
aF0.0
aF0.0
aF0.0
aF0.0
aF0.0
aF0.0
aF0.0
aF0.0
aF0.0
aF0.0
aF0.0
aF0.0
aF0.0
aF0.0
aF0.0
aF0.0
aF0.0
aF0.0
aF0.0
aF1.0
aF0.0
aF0.0
aF0.0
aF0.0
aF0.0
aF0.0
aF0.0
aF0.0
aF0.0
aF0.0
aF0.0
aF0.0
aF0.0
aF0.0
aF0.0
aF0.0
aF0.0
aF0.0
aF0.0
aF0.0
aF0.0
aF0.0
aF0.0
aF0.0
aF0.0
aF0.0
aF0.0
aF0.0
aF0.0
aF1.0
aF0.0
aF0.0
aF0.0
aF0.0
aF0.0
aF0.0
aF0.0
aF0.0
aF0.0
aF1.0
aF0.0
aF0.0
aF0.0
aF0.0
aF1.0
aF0.0
aF0.0
aF0.0
aF0.0
aF0.0
aF0.0
aF0.0
aF0.0
aF0.0
aF0.0
aF0.0
aF0.0
aF0.0
aF0.0
aF0.0
aF0.0
aF0.0
aF0.0
aF0.0
aF0.0
aF0.0
aF0.0
aF0.0
aF0.0
aF0.0
aF0.0
aF0.0
aF0.0
aF0.0
aF0.0
aF0.0
aF0.0
aF0.0
aF0.0
aF0.0
aF0.0
aF0.0
aF0.0
aF0.0
aF0.0
aF0.0
aF0.0
aF0.0
aF0.0
aF0.0
aF0.0
aF0.0
aF0.0
aF2.0
aF0.0
aF0.0
aF0.0
aF0.0
aF0.0
aF0.0
aF0.0
aF0.0
aF0.0
aF0.0
aF0.0
aF0.0
aF0.0
aF0.0
aF0.0
aF0.0
aF0.0
aF0.0
aF0.0
aF0.0
aF0.0
aF0.0
aF0.0
aF0.0
aF0.0
aF0.0
aF0.0
aF0.0
aF0.0
aF0.0
aF2.0
aF0.0
aF0.0
aF0.0
aF0.0
aF0.0
aF0.0
aF0.0
aF0.0
aF0.0
aF0.0
aF0.0
aF0.0
aF0.0
aF0.0
aF0.0
aF0.0
aF0.0
aF0.0
aF0.0
aF0.0
aF0.0
aF0.0
aF0.0
aF0.0
aF0.0
aF1.0
aF0.0
aF0.0
aF0.0
aF0.0
aF0.0
aF0.0
aF0.0
aF0.0
aF0.0
aF0.0
aF0.0
aF0.0
aF0.0
aF0.0
aF0.0
aF0.0
aF0.0
aF0.0
aF0.0
aF0.0
aF0.0
aF0.0
aF0.0
aF0.0
aF0.0
aF0.0
aF0.0
aF0.0
aF0.0
aF0.0
aF0.0
aF0.0
aF0.0
aF0.0
aF0.0
aF0.0
aF0.0
aF0.0
aF0.0
aF0.0
aF0.0
aF0.0
aF0.0
aF0.0
aF0.0
aF0.0
aF0.0
aF0.0
aF0.0
aF0.0
aF0.0
aF0.0
aF0.0
aF0.0
aF0.0
aF0.0
aF0.0
aF0.0
aF0.0
aF0.0
aF0.0
aF0.0
aF0.0
aF0.0
aF0.0
aF0.0
aF0.0
aF0.0
aF0.0
aF0.0
aF0.0
aF0.0
aF0.0
aF0.0
aF0.0
aF0.0
aF0.0
aF0.0
aF0.0
aF0.0
aF0.0
aF0.0
aF0.0
aF0.0
aF0.0
aF0.0
aF0.0
aF0.0
aF0.0
aF0.0
aF0.0
aF2.0
aF0.0
aF0.0
aF0.0
aF0.0
aF0.0
aF0.0
aF0.0
aF0.0
aF0.0
aF0.0
aF0.0
aF0.0
aF0.0
aF0.0
aF0.0
aF0.0
aF0.0
aF0.0
aF0.0
aF0.0
aF0.0
aF0.0
aF0.0
aF0.0
aF0.0
aF0.0
aF0.0
aF0.0
aF0.0
aF0.0
aF0.0
aF0.0
aF0.0
aF0.0
aF0.0
aF0.0
aF0.0
aF0.0
aF0.0
aF0.0
aF0.0
aF0.0
aF0.0
aF0.0
aF0.0
aF0.0
aF0.0
aF0.0
aF0.0
aF0.0
aF0.0
aF0.0
aF0.0
aF0.0
aF0.0
aF0.0
aF0.0
aF0.0
aF0.0
aF0.0
aF0.0
aF0.0
aF0.0
aF0.0
aF0.0
aF0.0
aF0.0
aF0.0
aF0.0
aF0.0
aF0.0
aF0.0
aF0.0
aF0.0
aF0.0
aF0.0
aF0.0
aF0.0
aF0.0
aF0.0
aF0.0
aF0.0
aF0.0
aF0.0
aF0.0
aF0.0
aF0.0
aF0.0
aF0.0
aF0.0
aF0.0
aF0.0
aF0.0
aF0.0
aF0.0
aF0.0
aF0.0
aF0.0
aF0.0
aF2.0
aF0.0
aF0.0
aF0.0
aF0.0
aF0.0
aF0.0
aF0.0
aF0.0
aF0.0
aF1.0
aF0.0
aF0.0
aF0.0
aF0.0
aF0.0
aF0.0
aF0.0
aF0.0
aF0.0
aF0.0
aF0.0
aF0.0
aF0.0
aF0.0
aF0.0
aF0.0
aF0.0
aF0.0
aF0.0
aF0.0
aF0.0
aF0.0
aF0.0
aF0.0
aF0.0
aF0.0
aF0.0
aF0.0
aF0.0
aF0.0
aF0.0
aF0.0
aF0.0
aF0.0
aF0.0
aF0.0
aF0.0
aF0.0
aF0.0
aF0.0
aF0.0
aF0.0
aF0.0
aF0.0
aF0.0
aF0.0
aF0.0
aF0.0
aF0.0
aF0.0
aF0.0
aF0.0
aF0.0
aF0.0
aF0.0
aF0.0
aF0.0
aF0.0
aF0.0
aF0.0
aF0.0
aF0.0
aF0.0
aF0.0
aF0.0
aF0.0
aF0.0
aF0.0
aF0.0
aF0.0
aF0.0
aF0.0
aF0.0
aF0.0
aF0.0
aF0.0
aF0.0
aF0.0
aF0.0
aF0.0
aF0.0
aF0.0
aF0.0
aF0.0
aF0.0
aF0.0
aF0.0
aF0.0
aF0.0
aF0.0
aF0.0
aF0.0
aF0.0
aF0.0
aF0.0
aF0.0
aF0.0
aF0.0
aF0.0
aF0.0
aF0.0
aF0.0
aF0.0
aF0.0
aF0.0
aF0.0
aF0.0
aF0.0
aF0.0
aF0.0
aF0.0
aF0.0
aF0.0
aF0.0
aF0.0
aF0.0
aF0.0
aF0.0
aF0.0
aF0.0
aF0.0
aF0.0
aF0.0
aF0.0
aF0.0
aF0.0
aF0.0
aF0.0
aF0.0
aF0.0
aF0.0
aF0.0
aF0.0
aF0.0
aF0.0
aF0.0
aF0.0
aF0.0
aF0.0
aF0.0
aF0.0
aF0.0
aF0.0
aF0.0
aF0.0
aF0.0
aF0.0
aF0.0
aF0.0
aF0.0
aF0.0
aF0.0
aF0.0
aF0.0
aF0.0
aF0.0
aF0.0
aF0.0
aF0.0
aF0.0
aF0.0
aF0.0
aF0.0
aF0.0
aF0.0
aF0.0
aF0.0
aF0.0
aF0.0
aF0.0
aF0.0
aF0.0
aF0.0
aF0.0
aF0.0
aF0.0
aF0.0
aF0.0
aF0.0
aF0.0
aF0.0
aF0.0
aF0.0
aF0.0
aF0.0
aF0.0
aF0.0
aF0.0
aF0.0
aF0.0
aF0.0
aF0.0
aF0.0
aF0.0
aF0.0
aF0.0
aF1.0
aF0.0
aF0.0
aF0.0
aF0.0
aF0.0
aF0.0
aF0.0
aF2.0
aF0.0
aF5.0
aF0.0
aF0.0
aF0.0
aF0.0
aF0.0
aF0.0
aF0.0
aF0.0
aF0.0
aF0.0
aF18.0
aF42.0
aF26.0
aF28.0
aF25.0
aF6.0
aF15.0
aF21.0
aF34.0
aF19.0
aF29.0
aF35.0
aF37.0
aF30.0
aF7.0
aF38.0
aF26.0
aF41.0
aF24.0
aF31.0
aF24.0
aF39.0
aF12.0
aF31.0
aF38.0
aF38.0
aF19.0
aF28.0
aF39.0
aF20.0
aF1.0
aF18.0
aF34.0
aF28.0
aF41.0
aF23.0
aF33.0
aF5.0
aF14.0
aF24.0
aF32.0
aF45.0
aF40.0
aF26.0
aF88.0
aF30.0
aF41.0
aF49.0
aF33.0
aF30.0
aF15.0
aF7.0
aF26.0
aF25.0
aF20.0
aF19.0
aF23.0
aF37.0
aF21.0
aF32.0
aF1.0
aF45.0
aF20.0
aF23.0
aF10.0
aF29.0
aF43.0
aF18.0
aF0.0
aF23.0
aF36.0
aF33.0
aF6.0
aF25.0
aF40.0
aF33.0
aF7.0
aF32.0
aF20.0
aF0.0
aF27.0
aF28.0
aF26.0
aF14.0
aF15.0
aF34.0
aF4.0
aF28.0
aF32.0
aF10.0
aF31.0
aF6.0
aF38.0
aF13.0
aF29.0
aF15.0
aF38.0
aF27.0
aF5.0
aF22.0
aF25.0
aF43.0
aF28.0
aF31.0
aF11.0
aF23.0
aF43.0
aF14.0
aF40.0
aF18.0
aF30.0
aF46.0
aF6.0
aF25.0
aF37.0
aF35.0
aF16.0
aF48.0
aF22.0
aF39.0
aF14.0
aF10.0
aF7.0
aF29.0
aF31.0
aF19.0
aF12.0
aF23.0
aF23.0
aF3.0
aF48.0
aF25.0
aF28.0
aF4.0
aF1.0
aF28.0
aF20.0
aF13.0
aF6.0
aF35.0
aF18.0
aF11.0
aF30.0
aF37.0
aF34.0
aF37.0
aF36.0
aF27.0
aF13.0
aF13.0
aF14.0
aF52.0
aF34.0
aF29.0
aF27.0
aF33.0
aF27.0
aF34.0
aF27.0
aF8.0
aF16.0
aF22.0
aF21.0
aF28.0
aF19.0
aF9.0
aF41.0
aF33.0
aF34.0
aF52.0
aF11.0
aF0.0
aF0.0
aF34.0
aF25.0
aF36.0
aF13.0
aF35.0
aF25.0
aF36.0
aF26.0
aF31.0
aF29.0
aF38.0
aF21.0
aF22.0
aF9.0
aF0.0
aF4.0
aF17.0
aF27.0
aF20.0
aF12.0
aF17.0
aF26.0
aF29.0
aF40.0
aF2.0
aF27.0
aF33.0
aF25.0
aF21.0
aF38.0
aF36.0
aF41.0
aF32.0
aF11.0
aF4.0
aF38.0
aF34.0
aF6.0
aF28.0
aF41.0
aF10.0
aF18.0
aF32.0
aF15.0
aF13.0
aF34.0
aF14.0
aF0.0
aF3.0
aF10.0
aF18.0
aF28.0
aF0.0
aF0.0
aF42.0
aF37.0
aF20.0
aF32.0
aF27.0
aF8.0
aF7.0
aF23.0
aF11.0
aF38.0
aF30.0
aF31.0
aF28.0
aF15.0
aF6.0
aF33.0
aF40.0
aF11.0
aF32.0
aF14.0
aF27.0
aF44.0
aF5.0
aF0.0
aF6.0
aF19.0
aF32.0
aF21.0
aF10.0
aF25.0
aF25.0
aF51.0
aF3.0
aF38.0
aF27.0
aF39.0
aF37.0
aF2.0
aF10.0
aF28.0
aF15.0
aF12.0
aF33.0
aF1.0
aF41.0
aF31.0
aF6.0
aF28.0
aF3.0
aF39.0
aF22.0
aF23.0
aF0.0
aF0.0
aF0.0
aF7.0
aF18.0
aF11.0
aF33.0
aF5.0
aF33.0
aF4.0
aF0.0
aF0.0
aF0.0
aF0.0
aF0.0
aF0.0
aF0.0
aF0.0
aF15.0
aF38.0
aF35.0
aF36.0
aF4.0
aF21.0
aF8.0
aF27.0
aF9.0
aF0.0
aF12.0
aF23.0
aF47.0
aF30.0
aF35.0
aF18.0
aF17.0
aF31.0
aF35.0
aF4.0
aF0.0
aF0.0
aF0.0
aF4.0
aF34.0
aF15.0
aF14.0
aF30.0
aF40.0
aF16.0
aF40.0
aF50.0
aF39.0
aF49.0
aF28.0
aF24.0
aF31.0
aF47.0
aF35.0
aF18.0
aF36.0
aF36.0
aF32.0
aF0.0
aF32.0
aF13.0
aF25.0
aF42.0
aF28.0
aF28.0
aF45.0
aF28.0
aF21.0
aF19.0
aF24.0
aF15.0
aF36.0
aF7.0
aF26.0
aF33.0
aF10.0
aF26.0
aF0.0
aF27.0
aF34.0
aF36.0
aF35.0
aF24.0
aF30.0
aF14.0
aF21.0
aF41.0
aF37.0
aF3.0
aF46.0
aF31.0
aF19.0
aF24.0
aF7.0
aF23.0
aF26.0
aF48.0
aF44.0
aF30.0
aF10.0
aF13.0
aF30.0
aF16.0
aF45.0
aF40.0
aF29.0
aF13.0
aF8.0
aF29.0
aF25.0
aF26.0
aF46.0
aF26.0
aF22.0
aF14.0
aF32.0
aF27.0
aF4.0
aF47.0
aF32.0
aF33.0
aF5.0
aF19.0
aF37.0
aF39.0
aF28.0
aF17.0
aF32.0
aF17.0
aF25.0
aF20.0
aF24.0
aF28.0
aF29.0
aF8.0
aF27.0
aF33.0
aF24.0
aF7.0
aF30.0
aF21.0
aF15.0
aF25.0
aF43.0
aF23.0
aF25.0
aF13.0
aF7.0
aF40.0
aF16.0
aF49.0
aF33.0
aF27.0
aF29.0
aF3.0
aF20.0
aF25.0
aF0.0
aF43.0
aF22.0
aF44.0
aF35.0
aF23.0
aF22.0
aF43.0
aF30.0
aF24.0
aF18.0
aF17.0
aF41.0
aF46.0
aF33.0
aF25.0
aF34.0
aF17.0
aF24.0
aF26.0
aF6.0
aF45.0
aF63.0
aF29.0
aF0.0
aF32.0
aF19.0
aF21.0
aF32.0
aF33.0
aF24.0
aF20.0
aF12.0
aF44.0
aF25.0
aF9.0
aF16.0
aF7.0
aF25.0
aF17.0
aF8.0
aF64.0
aF40.0
aF31.0
aF41.0
aF22.0
aF9.0
aF29.0
aF18.0
aF25.0
aF71.0
aF28.0
aF49.0
aF42.0
aF22.0
aF34.0
aF17.0
aF14.0
aF0.0
aF25.0
aF35.0
aF14.0
aF27.0
aF34.0
aF25.0
aF48.0
aF16.0
aF28.0
aF31.0
aF47.0
aF5.0
aF53.0
aF41.0
aF9.0
aF28.0
aF49.0
aF16.0
aF51.0
aF32.0
aF78.0
aF26.0
aF21.0
aF8.0
aF22.0
aF21.0
aF17.0
aF19.0
aF29.0
aF25.0
aF24.0
aF25.0
aF27.0
aF16.0
aF30.0
aF27.0
aF33.0
aF18.0
aF30.0
aF32.0
aF22.0
aF28.0
aF40.0
aF29.0
aF14.0
aF21.0
aF31.0
aF21.0
aF36.0
aF12.0
aF17.0
aF37.0
aF0.0
aF4.0
aF5.0
aF12.0
aF8.0
aF45.0
aF22.0
aF2.0
aF31.0
aF30.0
aF25.0
aF23.0
aF18.0
aF23.0
aF43.0
aF34.0
aF13.0
aF30.0
aF20.0
aF33.0
aF24.0
aF9.0
aF19.0
aF31.0
aF28.0
aF23.0
aF22.0
aF26.0
aF21.0
aF2.0
aF42.0
aF24.0
aF3.0
aF4.0
aF5.0
aF48.0
aF40.0
aF50.0
aF6.0
aF11.0
aF29.0
aF27.0
aF33.0
aF14.0
aF27.0
aF1.0
aF7.0
aF0.0
aF1.0
aF0.0
aF11.0
aF25.0
aF6.0
aF25.0
aF17.0
aF18.0
aF27.0
aF33.0
aF45.0
aF27.0
aF18.0
aF26.0
aF10.0
aF5.0
aF6.0
aF15.0
aF13.0
aF49.0
aF54.0
aF2.0
aF41.0
aF0.0
aF0.0
aF0.0
aF11.0
aF25.0
aF5.0
aF33.0
aF38.0
aF9.0
aF0.0
aF17.0
aF29.0
aF18.0
aF56.0
aF43.0
aF13.0
aF45.0
aF35.0
aF28.0
aF21.0
aF27.0
aF2.0
aF21.0
aF33.0
aF29.0
aF32.0
aF20.0
aF33.0
aF7.0
aF33.0
aF39.0
aF28.0
aF17.0
aF28.0
aF7.0
aF33.0
aF41.0
aF20.0
aF14.0
aF34.0
aF22.0
aF42.0
aF44.0
aF45.0
aF25.0
aF36.0
aF36.0
aF20.0
aF30.0
aF33.0
aF39.0
aF27.0
aF47.0
aF24.0
aF34.0
aF28.0
aF1.0
aF31.0
aF33.0
aF32.0
aF49.0
aF11.0
aF34.0
aF29.0
aF28.0
aF17.0
aF28.0
aF14.0
aF34.0
aF13.0
aF26.0
aF50.0
aF23.0
aF22.0
aF14.0
aF17.0
aF16.0
aF22.0
aF34.0
aF38.0
aF36.0
aF19.0
aF27.0
aF33.0
aF6.0
aF35.0
aF18.0
aF9.0
aF19.0
aF19.0
aF46.0
aF4.0
aF13.0
aF7.0
aF18.0
aF9.0
aF29.0
aF21.0
aF23.0
aF16.0
aF6.0
aF32.0
aF1.0
aF16.0
aF31.0
aF35.0
aF32.0
aF24.0
aF22.0
aF30.0
aF21.0
aF9.0
aF20.0
aF17.0
aF44.0
aF12.0
aF8.0
aF36.0
aF7.0
aF31.0
aF34.0
aF32.0
aF12.0
aF37.0
aF37.0
aF42.0
aF1.0
aF36.0
aF21.0
aF39.0
aF28.0
aF32.0
aF14.0
aF29.0
aF9.0
aF27.0
aF20.0
aF21.0
aF49.0
aF13.0
aF37.0
aF15.0
aF26.0
aF13.0
aF12.0
aF15.0
aF33.0
aF40.0
aF6.0
aF29.0
aF3.0
aF1.0
aF16.0
aF27.0
aF15.0
aF35.0
aF31.0
aF32.0
aF2.0
aF4.0
aF13.0
aF23.0
aF21.0
aF27.0
aF20.0
aF28.0
aF31.0
aF2.0
aF15.0
aF13.0
aF28.0
aF23.0
aF31.0
aF26.0
aF32.0
aF11.0
aF2.0
aF33.0
aF23.0
aF8.0
aF16.0
aF12.0
aF12.0
aF19.0
aF25.0
aF33.0
aF33.0
aF11.0
aF35.0
aF44.0
aF2.0
aF25.0
aF30.0
aF31.0
aF21.0
aF31.0
aF14.0
aF55.0
aF32.0
aF30.0
aF0.0
aF5.0
aF26.0
aF0.0
aF26.0
aF0.0
aF4.0
aF12.0
aF32.0
aF38.0
aF34.0
aF26.0
aF33.0
aF33.0
aF28.0
aF13.0
aF33.0
aF46.0
aF34.0
aF32.0
aF22.0
aF22.0
aF30.0
aF19.0
aF12.0
aF22.0
aF36.0
aF27.0
aF34.0
aF20.0
aF9.0
aF10.0
aF39.0
aF10.0
aF29.0
aF77.0
aF30.0
aF37.0
aF8.0
aF26.0
aF10.0
aF36.0
aF32.0
aF23.0
aF34.0
aF28.0
aF31.0
aF23.0
aF36.0
aF30.0
aF12.0
aF30.0
aF4.0
aF48.0
aF30.0
aF19.0
aF13.0
aF13.0
aF21.0
aF16.0
aF16.0
aF26.0
aF3.0
aF15.0
aF24.0
aF25.0
aF43.0
aF5.0
aF15.0
aF45.0
aF17.0
aF18.0
aF38.0
aF23.0
aF34.0
aF89.0
aF46.0
aF10.0
aF33.0
aF39.0
aF26.0
aF27.0
aF32.0
aF29.0
aF37.0
aF31.0
aF24.0
aF38.0
aF28.0
aF27.0
aF17.0
aF39.0
aF25.0
aF32.0
aF42.0
aF30.0
aF18.0
aF27.0
aF31.0
aF27.0
aF45.0
aF29.0
aF13.0
aF2.0
aF31.0
aF30.0
aF32.0
aF3.0
aF23.0
aF34.0
aF22.0
aF45.0
aF34.0
aF35.0
aF29.0
aF15.0
aF14.0
aF47.0
aF14.0
aF44.0
aF72.0
aF17.0
aF5.0
aF26.0
aF47.0
aF8.0
aF49.0
aF38.0
aF32.0
aF37.0
aF30.0
aF23.0
aF15.0
aF26.0
aF14.0
aF34.0
aF31.0
aF14.0
aF35.0
aF35.0
aF29.0
aF28.0
aF28.0
aF40.0
aF49.0
aF31.0
aF17.0
aF43.0
aF17.0
aF29.0
aF18.0
aF23.0
aF5.0
aF4.0
aF4.0
aF12.0
aF44.0
aF26.0
aF39.0
aF48.0
aF10.0
aF3.0
aF21.0
aF30.0
aF93.0
aF29.0
aF23.0
aF35.0
aF17.0
aF32.0
aF36.0
aF30.0
aF0.0
aF55.0
aF4.0
aF6.0
aF16.0
aF13.0
aF25.0
aF45.0
aF36.0
aF31.0
aF52.0
aF21.0
aF8.0
aF11.0
aF25.0
aF26.0
aF45.0
aF14.0
aF27.0
aF29.0
aF30.0
aF53.0
aF41.0
aF29.0
aF15.0
aF16.0
aF13.0
aF33.0
aF11.0
aF13.0
aF36.0
aF46.0
aF19.0
aF43.0
aF13.0
aF19.0
aF21.0
aF29.0
aF0.0
aF29.0
aF38.0
aF10.0
aF14.0
aF38.0
aF15.0
aF35.0
aF30.0
aF32.0
aF32.0
aF31.0
aF25.0
aF9.0
aF30.0
aF29.0
aF42.0
aF3.0
aF66.0
aF4.0
aF35.0
aF20.0
aF44.0
aF44.0
aF40.0
aF32.0
aF28.0
aF9.0
aF8.0
aF27.0
aF8.0
aF28.0
aF33.0
aF30.0
aF32.0
aF21.0
aF13.0
aF41.0
aF12.0
aF84.0
aF6.0
aF26.0
aF42.0
aF11.0
aF21.0
aF9.0
aF20.0
aF32.0
aF24.0
aF17.0
aF32.0
aF14.0
aF30.0
aF7.0
aF31.0
aF21.0
aF35.0
aF52.0
aF49.0
aF31.0
aF27.0
aF35.0
aF31.0
aF38.0
aF14.0
aF24.0
aF14.0
aF30.0
aF30.0
aF8.0
aF25.0
aF19.0
aF41.0
aF0.0
aF44.0
aF18.0
aF36.0
aF38.0
aF14.0
aF11.0
aF7.0
aF8.0
aF45.0
aF34.0
aF3.0
aF34.0
aF1.0
aF92.0
aF29.0
aF21.0
aF39.0
aF21.0
aF13.0
aF7.0
aF28.0
aF31.0
aF8.0
aF33.0
aF19.0
aF16.0
aF42.0
aF5.0
aF23.0
aF6.0
aF3.0
aF21.0
aF30.0
aF32.0
aF0.0
aF38.0
aF33.0
aF21.0
aF29.0
aF32.0
aF43.0
aF35.0
aF10.0
aF20.0
aF28.0
aF27.0
aF55.0
aF47.0
aF33.0
aF37.0
aF25.0
aF34.0
aF16.0
aF90.0
aF32.0
aF1.0
aF0.0
aF1.0
aF5.0
aF7.0
aF48.0
aF76.0
aF0.0
aF16.0
aF37.0
aF0.0
aF36.0
aF22.0
aF29.0
aF27.0
aF23.0
aF30.0
aF35.0
aF25.0
aF37.0
aF38.0
aF42.0
aF16.0
aF64.0
aF25.0
aF34.0
aF34.0
aF10.0
aF32.0
aF31.0
aF38.0
aF40.0
aF7.0
aF29.0
aF26.0
aF33.0
aF48.0
aF21.0
aF23.0
aF9.0
aF35.0
aF35.0
aF1.0
aF34.0
aF35.0
aF22.0
aF10.0
aF1.0
aF10.0
aF30.0
aF44.0
aF24.0
aF49.0
aF30.0
aF30.0
aF7.0
aF95.0
aF24.0
aF31.0
aF9.0
aF20.0
aF27.0
aF36.0
aF27.0
aF0.0
aF5.0
aF37.0
aF31.0
aF30.0
aF39.0
aF9.0
aF33.0
aF25.0
aF36.0
aF10.0
aF29.0
aF38.0
aF41.0
aF7.0
aF42.0
aF39.0
aF15.0
aF23.0
aF9.0
aF26.0
aF0.0
aF18.0
aF21.0
aF13.0
aF31.0
aF43.0
aF31.0
aF19.0
aF16.0
aF29.0
aF8.0
aF28.0
aF24.0
aF34.0
aF12.0
aF32.0
aF38.0
aF17.0
aF25.0
aF25.0
aF18.0
aF29.0
aF27.0
aF30.0
aF57.0
aF27.0
aF14.0
aF44.0
aF20.0
aF38.0
aF18.0
aF45.0
aF30.0
aF36.0
aF39.0
aF41.0
aF36.0
aF38.0
aF38.0
aF47.0
aF32.0
aF43.0
aF20.0
aF10.0
aF26.0
aF35.0
aF0.0
aF18.0
aF20.0
aF36.0
aF36.0
aF18.0
aF16.0
aF36.0
aF44.0
aF29.0
aF18.0
aF33.0
aF35.0
aF21.0
aF34.0
aF36.0
aF17.0
aF1.0
aF9.0
aF44.0
aF31.0
aF27.0
aF33.0
aF1.0
aF19.0
aF28.0
aF30.0
aF44.0
aF16.0
aF12.0
aF33.0
aF18.0
aF29.0
aF20.0
aF33.0
aF37.0
aF5.0
aF29.0
aF29.0
aF0.0
aF23.0
aF27.0
aF21.0
aF30.0
aF33.0
aF1.0
aF28.0
aF32.0
aF26.0
aF26.0
aF36.0
aF24.0
aF4.0
aF3.0
aF20.0
aF43.0
aF54.0
aF38.0
aF27.0
aF20.0
aF20.0
aF36.0
aF30.0
aF15.0
aF30.0
aF28.0
aF9.0
aF30.0
aF27.0
aF28.0
aF13.0
aF33.0
aF36.0
aF5.0
aF17.0
aF9.0
aF21.0
aF30.0
aF17.0
aF27.0
aF29.0
aF40.0
aF18.0
aF6.0
aF19.0
aF29.0
aF15.0
aF37.0
aF34.0
aF9.0
aF36.0
aF5.0
aF9.0
aF32.0
aF16.0
aF23.0
aF17.0
aF41.0
aF19.0
aF39.0
aF26.0
aF1.0
aF13.0
aF28.0
aF26.0
aF11.0
aF35.0
aF14.0
aF17.0
aF6.0
aF6.0
aF28.0
aF27.0
aF29.0
aF49.0
aF33.0
aF50.0
aF22.0
aF32.0
aF3.0
aF28.0
aF18.0
aF34.0
aF37.0
aF6.0
aF31.0
aF35.0
aF11.0
aF25.0
aF39.0
aF21.0
aF33.0
aF31.0
aF24.0
aF27.0
aF13.0
aF13.0
aF26.0
aF26.0
aF44.0
aF12.0
aF28.0
aF31.0
aF35.0
aF19.0
aF29.0
aF32.0
aF31.0
aF37.0
aF23.0
aF14.0
aF27.0
aF35.0
aF26.0
aF28.0
aF31.0
aF25.0
aF15.0
aF0.0
aF21.0
aF22.0
aF46.0
aF34.0
aF22.0
aF15.0
aF16.0
aF8.0
aF8.0
aF30.0
aF12.0
aF31.0
aF37.0
aF50.0
aF37.0
aF25.0
aF33.0
aF4.0
aF22.0
aF23.0
aF38.0
aF34.0
aF29.0
aF26.0
aF25.0
aF39.0
aF20.0
aF11.0
aF9.0
aF24.0
aF11.0
aF35.0
aF0.0
aF39.0
aF22.0
aF0.0
aF7.0
aF16.0
aF50.0
aF45.0
aF11.0
aF24.0
aF0.0
aF26.0
aF9.0
aF0.0
aF4.0
aF24.0
aF30.0
aF23.0
aF40.0
aF35.0
aF34.0
aF33.0
aF43.0
aF30.0
aF32.0
aF36.0
aF30.0
aF32.0
aF0.0
aF0.0
aF23.0
aF12.0
aF24.0
aF14.0
aF26.0
aF29.0
aF21.0
aF30.0
aF39.0
aF36.0
aF13.0
aF11.0
aF7.0
aF0.0
aF18.0
aF22.0
aF21.0
aF35.0
aF14.0
aF3.0
aF44.0
aF1.0
aF20.0
aF28.0
aF17.0
aF39.0
aF12.0
aF24.0
aF31.0
aF51.0
aF40.0
aF8.0
aF33.0
aF26.0
aF9.0
aF8.0
aF0.0
aF0.0
aF4.0
aF18.0
aF26.0
aF13.0
aF0.0
aF5.0
aF9.0
aF22.0
aF69.0
aF21.0
aF26.0
aF29.0
aF13.0
aF24.0
aF0.0
aF0.0
aF14.0
aF32.0
aF23.0
aF18.0
aF8.0
aF29.0
aF18.0
aF29.0
aF3.0
aF19.0
aF13.0
aF31.0
aF29.0
aF18.0
aF27.0
aF36.0
aF10.0
aF33.0
aF38.0
aF30.0
aF23.0
aF5.0
aF9.0
aF14.0
aF5.0
aF0.0
a.