(lp0
(I60000
cnumpy.core.multiarray
scalar
p1
(cnumpy
dtype
p2
(S'f8'
p3
I0
I1
tp4
Rp5
(I3
S'<'
p6
NNNI-1
I-1
I0
tp7
bS'Q\x14EQ\x14E4\xc0'
p8
tp9
Rp10
F-inf
F-19.0
tp11
a(I70000
g1
(g5
S'R\xb8\x1e\x85\xebQ4\xc0'
p12
tp13
Rp14
F-inf
F-20.0
tp15
a(I80000
g1
(g5
S'6eMYSV4\xc0'
p16
tp17
Rp18
F-inf
F-20.0
tp19
a(I90000
g1
(g5
S'\xab\xaa\xaa\xaa\xaaJ4\xc0'
p20
tp21
Rp22
F-inf
F-19.0
tp23
a(I100000
g1
(g5
S'\x85\xebQ\xb8\x1eE4\xc0'
p24
tp25
Rp26
g1
(g5
S'\x00\x00\x00\x00\x00@4\xc0'
p27
tp28
Rp29
F-21.0
tp30
a(I110000
g1
(g5
S'{\x14\xaeG\xe1:4\xc0'
p31
tp32
Rp33
g1
(g5
S'{\x14\xaeG\xe1:4\xc0'
p34
tp35
Rp36
F-21.0
tp37
a(I120000
g1
(g5
S'\xc3\xf5(\\\x8fB4\xc0'
p38
tp39
Rp40
g36
F-19.0
tp41
a(I130000
g1
(g5
S'{\x14\xaeG\xe1:4\xc0'
p42
tp43
Rp44
g36
F-19.0
tp45
a(I140000
g1
(g5
S'\xc3\xf5(\\\x8fB4\xc0'
p46
tp47
Rp48
g1
(g5
S'\xb8\x1e\x85\xebQ84\xc0'
p49
tp50
Rp51
F-21.0
tp52
a(I150000
g1
(g5
S'H\xe1z\x14\xaeG4\xc0'
p53
tp54
Rp55
g51
F-21.0
tp56
a(I160000
g1
(g5
S'R\xb8\x1e\x85\xebQ4\xc0'
p57
tp58
Rp59
g51
F-20.0
tp60
a(I170000
g1
(g5
S'\x00\x00\x00\x00\x00@4\xc0'
p61
tp62
Rp63
g51
F-20.0
tp64
a(I180000
g1
(g5
S'\n\xd7\xa3p=J4\xc0'
p65
tp66
Rp67
g51
F-21.0
tp68
a(I190000
g1
(g5
S'\xd7\xa3p=\nW4\xc0'
p69
tp70
Rp71
g51
F-21.0
tp72
a(I200000
g1
(g5
S'R\xb8\x1e\x85\xebQ4\xc0'
p73
tp74
Rp75
g51
F-21.0
tp76
a(I210000
g1
(g5
S'\x14\xaeG\xe1zT4\xc0'
p77
tp78
Rp79
g51
F-19.0
tp80
a(I220000
g1
(g5
S'\xd7\xa3p=\nW4\xc0'
p81
tp82
Rp83
g51
F-20.0
tp84
a(I230000
g1
(g5
S'\x14\xaeG\xe1zT4\xc0'
p85
tp86
Rp87
g51
F-20.0
tp88
a(I240000
g1
(g5
S'\x8f\xc2\xf5(\\O4\xc0'
p89
tp90
Rp91
g51
F-20.0
tp92
a(I250000
g1
(g5
S'\xc3\xf5(\\\x8fB4\xc0'
p93
tp94
Rp95
g51
F-18.0
tp96
a(I260000
g1
(g5
S'\x85\xebQ\xb8\x1eE4\xc0'
p97
tp98
Rp99
g51
F-21.0
tp100
a(I270000
g1
(g5
S'=\n\xd7\xa3p=4\xc0'
p101
tp102
Rp103
g51
F-20.0
tp104
a(I280000
g1
(g5
S'\x00\x00\x00\x00\x00@4\xc0'
p105
tp106
Rp107
g51
F-20.0
tp108
a(I290000
g1
(g5
S'\xf6(\\\x8f\xc254\xc0'
p109
tp110
Rp111
g1
(g5
S'3333334\xc0'
p112
tp113
Rp114
F-20.0
tp115
a(I300000
g1
(g5
S')\\\x8f\xc2\xf5(4\xc0'
p116
tp117
Rp118
g1
(g5
S')\\\x8f\xc2\xf5(4\xc0'
p119
tp120
Rp121
F-17.0
tp122
a(I310000
g1
(g5
S'\xb8\x1e\x85\xebQ84\xc0'
p123
tp124
Rp125
g121
F-21.0
tp126
a(I320000
g1
(g5
S'q=\n\xd7\xa304\xc0'
p127
tp128
Rp129
g121
F-20.0
tp130
a(I330000
g1
(g5
S'\xc3\xf5(\\\x8fB4\xc0'
p131
tp132
Rp133
g121
F-20.0
tp134
a(I340000
g1
(g5
S'\xf6(\\\x8f\xc254\xc0'
p135
tp136
Rp137
g121
F-21.0
tp138
a(I350000
g1
(g5
S'\xc3\xf5(\\\x8fB4\xc0'
p139
tp140
Rp141
g121
F-21.0
tp142
a(I360000
g1
(g5
S'\xecQ\xb8\x1e\x85+4\xc0'
p143
tp144
Rp145
g121
F-19.0
tp146
a(I370000
g1
(g5
S'R\xb8\x1e\x85\xeb\x114\xc0'
p147
tp148
Rp149
g1
(g5
S'R\xb8\x1e\x85\xeb\x114\xc0'
p150
tp151
Rp152
F-19.0
tp153
a(I380000
g1
(g5
S'\xcd\xcc\xcc\xcc\xcc\x0c4\xc0'
p154
tp155
Rp156
g1
(g5
S'\n\xd7\xa3p=\n4\xc0'
p157
tp158
Rp159
F-19.0
tp160
a(I390000
g1
(g5
S'\xc3\xf5(\\\x8f\x024\xc0'
p161
tp162
Rp163
g1
(g5
S'\xc3\xf5(\\\x8f\x024\xc0'
p164
tp165
Rp166
F-19.0
tp167
a(I400000
g1
(g5
S')\\\x8f\xc2\xf5\xe83\xc0'
p168
tp169
Rp170
g1
(g5
S')\\\x8f\xc2\xf5\xe83\xc0'
p171
tp172
Rp173
F-18.0
tp174
a(I410000
g1
(g5
S'R\xb8\x1e\x85\xeb\xd13\xc0'
p175
tp176
Rp177
g1
(g5
S'R\xb8\x1e\x85\xeb\xd13\xc0'
p178
tp179
Rp180
F-19.0
tp181
a(I420000
g1
(g5
S')\\\x8f\xc2\xf5\xa83\xc0'
p182
tp183
Rp184
g1
(g5
S')\\\x8f\xc2\xf5\xa83\xc0'
p185
tp186
Rp187
F-20.0
tp188
a(I430000
g1
(g5
S'\x8f\xc2\xf5(\\\x8f3\xc0'
p189
tp190
Rp191
g1
(g5
S'\x8f\xc2\xf5(\\\x8f3\xc0'
p192
tp193
Rp194
F-15.0
tp195
a(I440000
g1
(g5
S'\x1f\x85\xebQ\xb8^3\xc0'
p196
tp197
Rp198
g1
(g5
S'\x1f\x85\xebQ\xb8^3\xc0'
p199
tp200
Rp201
F-17.0
tp202
a(I450000
g1
(g5
S'\xaeG\xe1z\x14.3\xc0'
p203
tp204
Rp205
g1
(g5
S'\xaeG\xe1z\x14.3\xc0'
p206
tp207
Rp208
F-19.0
tp209
a(I460000
g1
(g5
S'\xd7\xa3p=\n\x173\xc0'
p210
tp211
Rp212
g1
(g5
S'\xd7\xa3p=\n\x173\xc0'
p213
tp214
Rp215
F-19.0
tp216
a(I470000
g1
(g5
S'fffff\xe62\xc0'
p217
tp218
Rp219
g1
(g5
S'\xa4p=\n\xd7\xe32\xc0'
p220
tp221
Rp222
F-20.0
tp223
a(I480000
g1
(g5
S'H\xe1z\x14\xae\xc72\xc0'
p224
tp225
Rp226
g1
(g5
S'H\xe1z\x14\xae\xc72\xc0'
p227
tp228
Rp229
F-18.0
tp230
a(I490000
g1
(g5
S'\xb8\x1e\x85\xebQ\xb82\xc0'
p231
tp232
Rp233
g1
(g5
S'\xf6(\\\x8f\xc2\xb52\xc0'
p234
tp235
Rp236
F-19.0
tp237
a(I500000
g1
(g5
S'\xc3\xf5(\\\x8f\x822\xc0'
p238
tp239
Rp240
g1
(g5
S'\xc3\xf5(\\\x8f\x822\xc0'
p241
tp242
Rp243
F-17.0
tp244
a(I510000
g1
(g5
S'q=\n\xd7\xa3p2\xc0'
p245
tp246
Rp247
g1
(g5
S'q=\n\xd7\xa3p2\xc0'
p248
tp249
Rp250
F-21.0
tp251
a(I520000
g1
(g5
S'\xaeG\xe1z\x14.2\xc0'
p252
tp253
Rp254
g1
(g5
S'\xaeG\xe1z\x14.2\xc0'
p255
tp256
Rp257
F-14.0
tp258
a(I530000
g1
(g5
S'\xcd\xcc\xcc\xcc\xcc\x0c2\xc0'
p259
tp260
Rp261
g1
(g5
S'\xcd\xcc\xcc\xcc\xcc\x0c2\xc0'
p262
tp263
Rp264
F-19.0
tp265
a(I540000
g1
(g5
S'q=\n\xd7\xa3\xf01\xc0'
p266
tp267
Rp268
g1
(g5
S'q=\n\xd7\xa3\xf01\xc0'
p269
tp270
Rp271
F-18.0
tp272
a(I550000
g1
(g5
S'\xe1z\x14\xaeG\xe11\xc0'
p273
tp274
Rp275
g1
(g5
S'\xe1z\x14\xaeG\xe11\xc0'
p276
tp277
Rp278
F-17.0
tp279
a(I560000
g1
(g5
S'\x1f\x85\xebQ\xb8\xde1\xc0'
p280
tp281
Rp282
g1
(g5
S'\\\x8f\xc2\xf5(\xdc1\xc0'
p283
tp284
Rp285
F-18.0
tp286
a(I570000
g1
(g5
S'H\xe1z\x14\xae\xc71\xc0'
p287
tp288
Rp289
g1
(g5
S'H\xe1z\x14\xae\xc71\xc0'
p290
tp291
Rp292
F-16.0
tp293
a(I580000
g1
(g5
S'\xe1z\x14\xaeG\xa11\xc0'
p294
tp295
Rp296
g1
(g5
S'\xe1z\x14\xaeG\xa11\xc0'
p297
tp298
Rp299
F-18.0
tp300
a(I590000
g1
(g5
S'{\x14\xaeG\xe1\xba1\xc0'
p301
tp302
Rp303
g299
F-18.0
tp304
a(I600000
g1
(g5
S')\\\x8f\xc2\xf5\xa81\xc0'
p305
tp306
Rp307
g299
F-17.0
tp308
a(I610000
g1
(g5
S'\xd7\xa3p=\n\x971\xc0'
p309
tp310
Rp311
g1
(g5
S'\xd7\xa3p=\n\x971\xc0'
p312
tp313
Rp314
F-16.0
tp315
a(I620000
g1
(g5
S'=\n\xd7\xa3p}1\xc0'
p316
tp317
Rp318
g1
(g5
S'=\n\xd7\xa3p}1\xc0'
p319
tp320
Rp321
F-15.0
tp322
a(I630000
g1
(g5
S'\xb8\x1e\x85\xebQx1\xc0'
p323
tp324
Rp325
g1
(g5
S'\xaeG\xe1z\x14n1\xc0'
p326
tp327
Rp328
F-17.0
tp329
a(I640000
g1
(g5
S'\x9a\x99\x99\x99\x99Y1\xc0'
p330
tp331
Rp332
g1
(g5
S'\x9a\x99\x99\x99\x99Y1\xc0'
p333
tp334
Rp335
F-16.0
tp336
a(I650000
g1
(g5
S'H\xe1z\x14\xaeG1\xc0'
p337
tp338
Rp339
g1
(g5
S'H\xe1z\x14\xaeG1\xc0'
p340
tp341
Rp342
F-16.0
tp343
a(I660000
g1
(g5
S'\xaeG\xe1z\x14.1\xc0'
p344
tp345
Rp346
g1
(g5
S'\xa4p=\n\xd7#1\xc0'
p347
tp348
Rp349
F-15.0
tp350
a(I670000
g1
(g5
S'\\\x8f\xc2\xf5(\x1c1\xc0'
p351
tp352
Rp353
g1
(g5
S'\\\x8f\xc2\xf5(\x1c1\xc0'
p354
tp355
Rp356
F-18.0
tp357
a(I680000
g1
(g5
S'=\n\xd7\xa3p\xfd0\xc0'
p358
tp359
Rp360
g1
(g5
S'=\n\xd7\xa3p\xfd0\xc0'
p361
tp362
Rp363
F-16.0
tp364
a(I690000
g1
(g5
S'\x8f\xc2\xf5(\\\x0f1\xc0'
p365
tp366
Rp367
g363
F-18.0
tp368
a(I700000
g1
(g5
S'q=\n\xd7\xa3\xf00\xc0'
p369
tp370
Rp371
g1
(g5
S'q=\n\xd7\xa3\xf00\xc0'
p372
tp373
Rp374
F-15.0
tp375
a(I710000
g1
(g5
S'\xd7\xa3p=\n\xd70\xc0'
p376
tp377
Rp378
g1
(g5
S'\xd7\xa3p=\n\xd70\xc0'
p379
tp380
Rp381
F-14.0
tp382
a(I720000
g1
(g5
S'H\xe1z\x14\xae\xc70\xc0'
p383
tp384
Rp385
g1
(g5
S'H\xe1z\x14\xae\xc70\xc0'
p386
tp387
Rp388
F-14.0
tp389
a(I730000
g1
(g5
S'=\n\xd7\xa3p\xbd0\xc0'
p390
tp391
Rp392
g1
(g5
S'\xb8\x1e\x85\xebQ\xb80\xc0'
p393
tp394
Rp395
F-19.0
tp396
a(I740000
g1
(g5
S'fffff\xa60\xc0'
p397
tp398
Rp399
g1
(g5
S'fffff\xa60\xc0'
p400
tp401
Rp402
F-15.0
tp403
a(I750000
g1
(g5
S'\\\x8f\xc2\xf5(\x9c0\xc0'
p404
tp405
Rp406
g1
(g5
S'\\\x8f\xc2\xf5(\x9c0\xc0'
p407
tp408
Rp409
F-14.0
tp410
a(I760000
g1
(g5
S'\xc3\xf5(\\\x8f\x820\xc0'
p411
tp412
Rp413
g1
(g5
S'\xc3\xf5(\\\x8f\x820\xc0'
p414
tp415
Rp416
F-15.0
tp417
a(I770000
g1
(g5
S'\x14\xaeG\xe1zT0\xc0'
p418
tp419
Rp420
g1
(g5
S'\xcd\xcc\xcc\xcc\xccL0\xc0'
p421
tp422
Rp423
F-20.0
tp424
a(I780000
g1
(g5
S'\x1f\x85\xebQ\xb8^0\xc0'
p425
tp426
Rp427
g423
F-17.0
tp428
a(I790000
g1
(g5
S'\x8f\xc2\xf5(\\O0\xc0'
p429
tp430
Rp431
g423
F-12.0
tp432
a(I800000
g1
(g5
S'\xecQ\xb8\x1e\x85+0\xc0'
p433
tp434
Rp435
g1
(g5
S'\xecQ\xb8\x1e\x85+0\xc0'
p436
tp437
Rp438
F-14.0
tp439
a(I810000
g1
(g5
S'\x85\xebQ\xb8\x1e\x050\xc0'
p440
tp441
Rp442
g1
(g5
S'\x85\xebQ\xb8\x1e\x050\xc0'
p443
tp444
Rp445
F-10.0
tp446
a(I820000
g1
(g5
S'\x00\x00\x00\x00\x00\x000\xc0'
p447
tp448
Rp449
g1
(g5
S'\\\x8f\xc2\xf5(\xdc/\xc0'
p450
tp451
Rp452
F-19.0
tp453
a(I830000
g1
(g5
S'\xb8\x1e\x85\xebQ\xb8/\xc0'
p454
tp455
Rp456
g1
(g5
S'\xb8\x1e\x85\xebQ\xb8/\xc0'
p457
tp458
Rp459
F-7.0
tp460
a(I840000
g1
(g5
S'\n\xd7\xa3p=\x8a/\xc0'
p461
tp462
Rp463
g1
(g5
S'\n\xd7\xa3p=\x8a/\xc0'
p464
tp465
Rp466
F-17.0
tp467
a(I850000
g1
(g5
S'\xb8\x1e\x85\xebQ8/\xc0'
p468
tp469
Rp470
g1
(g5
S'\xa4p=\n\xd7#/\xc0'
p471
tp472
Rp473
F-17.0
tp474
a(I860000
g1
(g5
S'\xa4p=\n\xd7#/\xc0'
p475
tp476
Rp477
g1
(g5
S'\x9a\x99\x99\x99\x99\x19/\xc0'
p478
tp479
Rp480
F-17.0
tp481
a(I870000
g1
(g5
S'\\\x8f\xc2\xf5(\xdc.\xc0'
p482
tp483
Rp484
g1
(g5
S'\\\x8f\xc2\xf5(\xdc.\xc0'
p485
tp486
Rp487
F-18.0
tp488
a(I880000
g1
(g5
S'\xc3\xf5(\\\x8f\xc2.\xc0'
p489
tp490
Rp491
g1
(g5
S'\xc3\xf5(\\\x8f\xc2.\xc0'
p492
tp493
Rp494
F-16.0
tp495
a(I890000
g1
(g5
S'\x9a\x99\x99\x99\x99\x19.\xc0'
p496
tp497
Rp498
g1
(g5
S'\x9a\x99\x99\x99\x99\x19.\xc0'
p499
tp500
Rp501
F-11.0
tp502
a(I900000
g1
(g5
S'\xecQ\xb8\x1e\x85\xeb-\xc0'
p503
tp504
Rp505
g1
(g5
S'\xecQ\xb8\x1e\x85\xeb-\xc0'
p506
tp507
Rp508
F-11.0
tp509
a(I910000
g1
(g5
S'\xb8\x1e\x85\xebQ\xb8-\xc0'
p510
tp511
Rp512
g1
(g5
S'\xb8\x1e\x85\xebQ\xb8-\xc0'
p513
tp514
Rp515
F-15.0
tp516
a(I920000
g1
(g5
S'\xd7\xa3p=\nW-\xc0'
p517
tp518
Rp519
g1
(g5
S'\xd7\xa3p=\nW-\xc0'
p520
tp521
Rp522
F-12.0
tp523
a(I930000
g1
(g5
S'\xe1z\x14\xaeG\xe1,\xc0'
p524
tp525
Rp526
g1
(g5
S'\xd7\xa3p=\n\xd7,\xc0'
p527
tp528
Rp529
F-17.0
tp530
a(I940000
g1
(g5
S'\n\xd7\xa3p=\x8a,\xc0'
p531
tp532
Rp533
g1
(g5
S'\n\xd7\xa3p=\x8a,\xc0'
p534
tp535
Rp536
F-17.0
tp537
a(I950000
g1
(g5
S'\x00\x00\x00\x00\x00\x00,\xc0'
p538
tp539
Rp540
g1
(g5
S'\x00\x00\x00\x00\x00\x00,\xc0'
p541
tp542
Rp543
F-7.0
tp544
a(I960000
g1
(g5
S'\xa4p=\n\xd7\xa3+\xc0'
p545
tp546
Rp547
g1
(g5
S'\xa4p=\n\xd7\xa3+\xc0'
p548
tp549
Rp550
F-11.0
tp551
a(I970000
g1
(g5
S'{\x14\xaeG\xe1\xfa*\xc0'
p552
tp553
Rp554
g1
(g5
S'{\x14\xaeG\xe1\xfa*\xc0'
p555
tp556
Rp557
F-8.0
tp558
a(I980000
g1
(g5
S'\xaeG\xe1z\x14.*\xc0'
p559
tp560
Rp561
g1
(g5
S'\xaeG\xe1z\x14.*\xc0'
p562
tp563
Rp564
F-9.0
tp565
a(I990000
g1
(g5
S'=\n\xd7\xa3p\xbd)\xc0'
p566
tp567
Rp568
g1
(g5
S'=\n\xd7\xa3p\xbd)\xc0'
p569
tp570
Rp571
F-6.0
tp572
a(I1000000
g1
(g5
S'H\xe1z\x14\xaeG)\xc0'
p573
tp574
Rp575
g1
(g5
S'H\xe1z\x14\xaeG)\xc0'
p576
tp577
Rp578
F-13.0
tp579
a(I1010000
g1
(g5
S'\xc3\xf5(\\\x8f\xc2(\xc0'
p580
tp581
Rp582
g1
(g5
S'\xc3\xf5(\\\x8f\xc2(\xc0'
p583
tp584
Rp585
F-11.0
tp586
a(I1020000
g1
(g5
S'333333(\xc0'
p587
tp588
Rp589
g1
(g5
S'333333(\xc0'
p590
tp591
Rp592
F-1.0
tp593
a(I1030000
g1
(g5
S"q=\n\xd7\xa3p'\xc0"
p594
tp595
Rp596
g1
(g5
S"q=\n\xd7\xa3p'\xc0"
p597
tp598
Rp599
F5.0
tp600
a(I1040000
g1
(g5
S'\xe1z\x14\xaeG\xe1&\xc0'
p601
tp602
Rp603
g1
(g5
S'\xe1z\x14\xaeG\xe1&\xc0'
p604
tp605
Rp606
F-8.0
tp607
a(I1050000
g1
(g5
S'ffffff&\xc0'
p608
tp609
Rp610
g1
(g5
S'ffffff&\xc0'
p611
tp612
Rp613
F2.0
tp614
a(I1060000
g1
(g5
S'\xa4p=\n\xd7#&\xc0'
p615
tp616
Rp617
g1
(g5
S'\xa4p=\n\xd7#&\xc0'
p618
tp619
Rp620
F-8.0
tp621
a(I1070000
g1
(g5
S')\\\x8f\xc2\xf5\xa8%\xc0'
p622
tp623
Rp624
g1
(g5
S')\\\x8f\xc2\xf5\xa8%\xc0'
p625
tp626
Rp627
F-11.0
tp628
a(I1080000
g1
(g5
S'\xcd\xcc\xcc\xcc\xccL%\xc0'
p629
tp630
Rp631
g1
(g5
S'\xcd\xcc\xcc\xcc\xccL%\xc0'
p632
tp633
Rp634
F-2.0
tp635
a(I1090000
g1
(g5
S'\xc3\xf5(\\\x8fB$\xc0'
p636
tp637
Rp638
g1
(g5
S'\xc3\xf5(\\\x8fB$\xc0'
p639
tp640
Rp641
F-5.0
tp642
a(I1100000
g1
(g5
S'\x00\x00\x00\x00\x00\x80#\xc0'
p643
tp644
Rp645
g1
(g5
S'\x00\x00\x00\x00\x00\x80#\xc0'
p646
tp647
Rp648
F-5.0
tp649
a(I1110000
g1
(g5
S'\xb8\x1e\x85\xebQ8#\xc0'
p650
tp651
Rp652
g1
(g5
S'\xb8\x1e\x85\xebQ8#\xc0'
p653
tp654
Rp655
F4.0
tp656
a(I1120000
g1
(g5
S'\x14\xaeG\xe1z\x94"\xc0'
p657
tp658
Rp659
g1
(g5
S'\x14\xaeG\xe1z\x94"\xc0'
p660
tp661
Rp662
F-9.0
tp663
a(I1130000
g1
(g5
S'{\x14\xaeG\xe1z"\xc0'
p664
tp665
Rp666
g1
(g5
S'{\x14\xaeG\xe1z"\xc0'
p667
tp668
Rp669
F-2.0
tp670
a(I1140000
g1
(g5
S'\xd7\xa3p=\nW"\xc0'
p671
tp672
Rp673
g1
(g5
S'\xd7\xa3p=\nW"\xc0'
p674
tp675
Rp676
F-10.0
tp677
a(I1150000
g1
(g5
S'\x8f\xc2\xf5(\\\x8f!\xc0'
p678
tp679
Rp680
g1
(g5
S'\x8f\xc2\xf5(\\\x8f!\xc0'
p681
tp682
Rp683
F4.0
tp684
a(I1160000
g1
(g5
S'\x1f\x85\xebQ\xb8\x1e!\xc0'
p685
tp686
Rp687
g1
(g5
S'\x1f\x85\xebQ\xb8\x1e!\xc0'
p688
tp689
Rp690
F-12.0
tp691
a(I1170000
g1
(g5
S'333333 \xc0'
p692
tp693
Rp694
g1
(g5
S'333333 \xc0'
p695
tp696
Rp697
F2.0
tp698
a(I1180000
g1
(g5
S'\xaeG\xe1z\x14\xae\x1e\xc0'
p699
tp700
Rp701
g1
(g5
S'\xaeG\xe1z\x14\xae\x1e\xc0'
p702
tp703
Rp704
F7.0
tp705
a(I1190000
g1
(g5
S'H\xe1z\x14\xaeG\x1d\xc0'
p706
tp707
Rp708
g1
(g5
S'H\xe1z\x14\xaeG\x1d\xc0'
p709
tp710
Rp711
F3.0
tp712
a(I1200000
g1
(g5
S'{\x14\xaeG\xe1z\x1c\xc0'
p713
tp714
Rp715
g1
(g5
S'{\x14\xaeG\xe1z\x1c\xc0'
p716
tp717
Rp718
F4.0
tp719
a(I1210000
g1
(g5
S'q=\n\xd7\xa3p\x1a\xc0'
p720
tp721
Rp722
g1
(g5
S'q=\n\xd7\xa3p\x1a\xc0'
p723
tp724
Rp725
F5.0
tp726
a(I1220000
g1
(g5
S'H\xe1z\x14\xaeG\x19\xc0'
p727
tp728
Rp729
g1
(g5
S'H\xe1z\x14\xaeG\x19\xc0'
p730
tp731
Rp732
F-6.0
tp733
a(I1230000
g1
(g5
S'\x00\x00\x00\x00\x00\x00\x18\xc0'
p734
tp735
Rp736
g1
(g5
S'\x00\x00\x00\x00\x00\x00\x18\xc0'
p737
tp738
Rp739
F8.0
tp740
a(I1240000
g1
(g5
S'\n\xd7\xa3p=\n\x16\xc0'
p741
tp742
Rp743
g1
(g5
S'\n\xd7\xa3p=\n\x16\xc0'
p744
tp745
Rp746
F1.0
tp747
a(I1250000
g1
(g5
S'\x14\xaeG\xe1z\x14\x15\xc0'
p748
tp749
Rp750
g1
(g5
S'\x14\xaeG\xe1z\x14\x15\xc0'
p751
tp752
Rp753
F-3.0
tp754
a(I1260000
g1
(g5
S'\xecQ\xb8\x1e\x85\xeb\x13\xc0'
p755
tp756
Rp757
g1
(g5
S'\xecQ\xb8\x1e\x85\xeb\x13\xc0'
p758
tp759
Rp760
F1.0
tp761
a(I1270000
g1
(g5
S'H\xe1z\x14\xaeG\x12\xc0'
p762
tp763
Rp764
g1
(g5
S'H\xe1z\x14\xaeG\x12\xc0'
p765
tp766
Rp767
F-7.0
tp768
a(I1280000
g1
(g5
S'\x14\xaeG\xe1z\x14\x11\xc0'
p769
tp770
Rp771
g1
(g5
S'\x14\xaeG\xe1z\x14\x11\xc0'
p772
tp773
Rp774
F1.0
tp775
a(I1290000
g1
(g5
S'\x8f\xc2\xf5(\\\x8f\x10\xc0'
p776
tp777
Rp778
g1
(g5
S'\x85\xebQ\xb8\x1e\x85\x10\xc0'
p779
tp780
Rp781
F-10.0
tp782
a(I1300000
g1
(g5
S'\xf6(\\\x8f\xc2\xf5\x0e\xc0'
p783
tp784
Rp785
g1
(g5
S'\xf6(\\\x8f\xc2\xf5\x0e\xc0'
p786
tp787
Rp788
F9.0
tp789
a(I1310000
g1
(g5
S'q=\n\xd7\xa3p\r\xc0'
p790
tp791
Rp792
g1
(g5
S'q=\n\xd7\xa3p\r\xc0'
p793
tp794
Rp795
F4.0
tp796
a(I1320000
g1
(g5
S'\x1f\x85\xebQ\xb8\x1e\x0b\xc0'
p797
tp798
Rp799
g1
(g5
S'\x1f\x85\xebQ\xb8\x1e\x0b\xc0'
p800
tp801
Rp802
F4.0
tp803
a(I1330000
g1
(g5
S'\xe1z\x14\xaeG\xe1\x08\xc0'
p804
tp805
Rp806
g1
(g5
S'\xe1z\x14\xaeG\xe1\x08\xc0'
p807
tp808
Rp809
F-5.0
tp810
a(I1340000
g1
(g5
S'\x14\xaeG\xe1z\x14\x08\xc0'
p811
tp812
Rp813
g1
(g5
S'\xc3\xf5(\\\x8f\xc2\x07\xc0'
p814
tp815
Rp816
F-6.0
tp817
a(I1350000
g1
(g5
S'\x14\xaeG\xe1z\x14\x06\xc0'
p818
tp819
Rp820
g1
(g5
S'\x14\xaeG\xe1z\x14\x06\xc0'
p821
tp822
Rp823
F7.0
tp824
a(I1360000
g1
(g5
S'\x85\xebQ\xb8\x1e\x85\x03\xc0'
p825
tp826
Rp827
g1
(g5
S'\x85\xebQ\xb8\x1e\x85\x03\xc0'
p828
tp829
Rp830
F7.0
tp831
a(I1370000
g1
(g5
S'\x00\x00\x00\x00\x00\x00\x00\xc0'
p832
tp833
Rp834
g1
(g5
S'\x00\x00\x00\x00\x00\x00\x00\xc0'
p835
tp836
Rp837
F7.0
tp838
a(I1380000
g1
(g5
S'R\xb8\x1e\x85\xebQ\xfc\xbf'
p839
tp840
Rp841
g1
(g5
S'R\xb8\x1e\x85\xebQ\xfc\xbf'
p842
tp843
Rp844
F3.0
tp845
a(I1390000
g1
(g5
S'333333\xf7\xbf'
p846
tp847
Rp848
g1
(g5
S'333333\xf7\xbf'
p849
tp850
Rp851
F6.0
tp852
a(I1400000
g1
(g5
S'H\xe1z\x14\xaeG\xf5\xbf'
p853
tp854
Rp855
g1
(g5
S'H\xe1z\x14\xaeG\xf5\xbf'
p856
tp857
Rp858
F-2.0
tp859
a(I1410000
g1
(g5
S'ffffff\xf2\xbf'
p860
tp861
Rp862
g1
(g5
S'ffffff\xf2\xbf'
p863
tp864
Rp865
F5.0
tp866
a(I1420000
g1
(g5
S'R\xb8\x1e\x85\xebQ\xe8\xbf'
p867
tp868
Rp869
g1
(g5
S'R\xb8\x1e\x85\xebQ\xe8\xbf'
p870
tp871
Rp872
F2.0
tp873
a(I1430000
g1
(g5
S'{\x14\xaeG\xe1z\xe4\xbf'
p874
tp875
Rp876
g1
(g5
S'{\x14\xaeG\xe1z\xe4\xbf'
p877
tp878
Rp879
F3.0
tp880
a(I1440000
g1
(g5
S'\x9a\x99\x99\x99\x99\x99\xd9\xbf'
p881
tp882
Rp883
g1
(g5
S'\x9a\x99\x99\x99\x99\x99\xd9\xbf'
p884
tp885
Rp886
F9.0
tp887
a(I1450000
g1
(g5
S'=\n\xd7\xa3p=\xda\xbf'
p888
tp889
Rp890
g1
(g5
S'\xc3\xf5(\\\x8f\xc2\xd5\xbf'
p891
tp892
Rp893
F-4.0
tp894
a(I1460000
g1
(g5
S'\x9a\x99\x99\x99\x99\x99\xb9\xbf'
p895
tp896
Rp897
g1
(g5
S'\x9a\x99\x99\x99\x99\x99\xb9\xbf'
p898
tp899
Rp900
F5.0
tp901
a(I1470000
g1
(g5
S'\x9a\x99\x99\x99\x99\x99\xc9?'
p902
tp903
Rp904
g1
(g5
S'\x9a\x99\x99\x99\x99\x99\xc9?'
p905
tp906
Rp907
F5.0
tp908
a(I1480000
g1
(g5
S'=\n\xd7\xa3p=\xda?'
p909
tp910
Rp911
g1
(g5
S'=\n\xd7\xa3p=\xda?'
p912
tp913
Rp914
F6.0
tp915
a(I1490000
g1
(g5
S'\xecQ\xb8\x1e\x85\xeb\xf1?'
p916
tp917
Rp918
g1
(g5
S'\xecQ\xb8\x1e\x85\xeb\xf1?'
p919
tp920
Rp921
F12.0
tp922
a(I1500000
g1
(g5
S')\\\x8f\xc2\xf5(\xf8?'
p923
tp924
Rp925
g1
(g5
S')\\\x8f\xc2\xf5(\xf8?'
p926
tp927
Rp928
F-5.0
tp929
a(I1510000
g1
(g5
S'ffffff\xfe?'
p930
tp931
Rp932
g1
(g5
S'ffffff\xfe?'
p933
tp934
Rp935
F-2.0
tp936
a(I1520000
g1
(g5
S'\xd7\xa3p=\n\xd7\x01@'
p937
tp938
Rp939
g1
(g5
S'\x00\x00\x00\x00\x00\x00\x02@'
p940
tp941
Rp942
F2.0
tp943
a(I1530000
g1
(g5
S'{\x14\xaeG\xe1z\x04@'
p944
tp945
Rp946
g1
(g5
S'{\x14\xaeG\xe1z\x04@'
p947
tp948
Rp949
F5.0
tp950
a(I1540000
g1
(g5
S')\\\x8f\xc2\xf5(\x06@'
p951
tp952
Rp953
g1
(g5
S')\\\x8f\xc2\xf5(\x06@'
p954
tp955
Rp956
F10.0
tp957
a(I1550000
g1
(g5
S'\xe1z\x14\xaeG\xe1\x08@'
p958
tp959
Rp960
g1
(g5
S'\xe1z\x14\xaeG\xe1\x08@'
p961
tp962
Rp963
F16.0
tp964
a(I1560000
g1
(g5
S'\xa4p=\n\xd7\xa3\x0c@'
p965
tp966
Rp967
g1
(g5
S'\xa4p=\n\xd7\xa3\x0c@'
p968
tp969
Rp970
F6.0
tp971
a(I1570000
g1
(g5
S'\xcd\xcc\xcc\xcc\xcc\xcc\x0e@'
p972
tp973
Rp974
g1
(g5
S'\xcd\xcc\xcc\xcc\xcc\xcc\x0e@'
p975
tp976
Rp977
F14.0
tp978
a(I1580000
g1
(g5
S'\xe1z\x14\xaeG\xe1\x10@'
p979
tp980
Rp981
g1
(g5
S'\xe1z\x14\xaeG\xe1\x10@'
p982
tp983
Rp984
F9.0
tp985
a(I1590000
g1
(g5
S'\x00\x00\x00\x00\x00\x00\x13@'
p986
tp987
Rp988
g1
(g5
S'\x00\x00\x00\x00\x00\x00\x13@'
p989
tp990
Rp991
F12.0
tp992
a(I1600000
g1
(g5
S'H\xe1z\x14\xaeG\x14@'
p993
tp994
Rp995
g1
(g5
S'H\xe1z\x14\xaeG\x14@'
p996
tp997
Rp998
F12.0
tp999
a(I1610000
g1
(g5
S'\xd7\xa3p=\n\xd7\x16@'
p1000
tp1001
Rp1002
g1
(g5
S'\xd7\xa3p=\n\xd7\x16@'
p1003
tp1004
Rp1005
F14.0
tp1006
a(I1620000
g1
(g5
S'\xe1z\x14\xaeG\xe1\x17@'
p1007
tp1008
Rp1009
g1
(g5
S'\xe1z\x14\xaeG\xe1\x17@'
p1010
tp1011
Rp1012
F10.0
tp1013
a(I1630000
g1
(g5
S'\\\x8f\xc2\xf5(\\\x19@'
p1014
tp1015
Rp1016
g1
(g5
S'\\\x8f\xc2\xf5(\\\x19@'
p1017
tp1018
Rp1019
F10.0
tp1020
a(I1640000
g1
(g5
S'\n\xd7\xa3p=\n\x1c@'
p1021
tp1022
Rp1023
g1
(g5
S'\n\xd7\xa3p=\n\x1c@'
p1024
tp1025
Rp1026
F15.0
tp1027
a(I1650000
g1
(g5
S'\\\x8f\xc2\xf5(\\\x1e@'
p1028
tp1029
Rp1030
g1
(g5
S'\\\x8f\xc2\xf5(\\\x1e@'
p1031
tp1032
Rp1033
F17.0
tp1034
a(I1660000
g1
(g5
S'\xe1z\x14\xaeGa @'
p1035
tp1036
Rp1037
g1
(g5
S'\xe1z\x14\xaeGa @'
p1038
tp1039
Rp1040
F17.0
tp1041
a(I1670000
g1
(g5
S'fffff\xe6!@'
p1042
tp1043
Rp1044
g1
(g5
S'fffff\xe6!@'
p1045
tp1046
Rp1047
F14.0
tp1048
a(I1680000
g1
(g5
S'\xb8\x1e\x85\xebQ\xb8"@'
p1049
tp1050
Rp1051
g1
(g5
S'\xb8\x1e\x85\xebQ\xb8"@'
p1052
tp1053
Rp1054
F19.0
tp1055
a(I1690000
g1
(g5
S'\xe1z\x14\xaeG\xe1#@'
p1056
tp1057
Rp1058
g1
(g5
S'\xe1z\x14\xaeG\xe1#@'
p1059
tp1060
Rp1061
F14.0
tp1062
a(I1700000
g1
(g5
S'q=\n\xd7\xa3\xf0$@'
p1063
tp1064
Rp1065
g1
(g5
S'q=\n\xd7\xa3\xf0$@'
p1066
tp1067
Rp1068
F17.0
tp1069
a(I1710000
g1
(g5
S'H\xe1z\x14\xaeG&@'
p1070
tp1071
Rp1072
g1
(g5
S'H\xe1z\x14\xaeG&@'
p1073
tp1074
Rp1075
F20.0
tp1076
a(I1720000
g1
(g5
S")\\\x8f\xc2\xf5('@"
p1077
tp1078
Rp1079
g1
(g5
S")\\\x8f\xc2\xf5('@"
p1080
tp1081
Rp1082
F16.0
tp1083
a(I1730000
g1
(g5
S'\xd7\xa3p=\nW(@'
p1084
tp1085
Rp1086
g1
(g5
S'\xd7\xa3p=\nW(@'
p1087
tp1088
Rp1089
F16.0
tp1090
a(I1740000
g1
(g5
S')\\\x8f\xc2\xf5()@'
p1091
tp1092
Rp1093
g1
(g5
S')\\\x8f\xc2\xf5()@'
p1094
tp1095
Rp1096
F16.0
tp1097
a(I1750000
g1
(g5
S'\xcd\xcc\xcc\xcc\xccL*@'
p1098
tp1099
Rp1100
g1
(g5
S'\xcd\xcc\xcc\xcc\xccL*@'
p1101
tp1102
Rp1103
F18.0
tp1104
a(I1760000
g1
(g5
S'333333+@'
p1105
tp1106
Rp1107
g1
(g5
S'333333+@'
p1108
tp1109
Rp1110
F18.0
tp1111
a(I1770000
g1
(g5
S'q=\n\xd7\xa3p,@'
p1112
tp1113
Rp1114
g1
(g5
S'q=\n\xd7\xa3p,@'
p1115
tp1116
Rp1117
F14.0
tp1118
a(I1780000
g1
(g5
S')\\\x8f\xc2\xf5(-@'
p1119
tp1120
Rp1121
g1
(g5
S')\\\x8f\xc2\xf5(-@'
p1122
tp1123
Rp1124
F17.0
tp1125
a(I1790000
g1
(g5
S'\xecQ\xb8\x1e\x85k-@'
p1126
tp1127
Rp1128
g1
(g5
S'q=\n\xd7\xa3p-@'
p1129
tp1130
Rp1131
F15.0
tp1132
a(I1800000
g1
(g5
S'H\xe1z\x14\xaeG.@'
p1133
tp1134
Rp1135
g1
(g5
S'H\xe1z\x14\xaeG.@'
p1136
tp1137
Rp1138
F18.0
tp1139
a(I1810000
g1
(g5
S'\xe1z\x14\xaeGa.@'
p1140
tp1141
Rp1142
g1
(g5
S'\xe1z\x14\xaeGa.@'
p1143
tp1144
Rp1145
F20.0
tp1146
a(I1820000
g1
(g5
S'=\n\xd7\xa3p\xbd.@'
p1147
tp1148
Rp1149
g1
(g5
S'=\n\xd7\xa3p\xbd.@'
p1150
tp1151
Rp1152
F17.0
tp1153
a(I1830000
g1
(g5
S'R\xb8\x1e\x85\xebQ/@'
p1154
tp1155
Rp1156
g1
(g5
S'\xd7\xa3p=\nW/@'
p1157
tp1158
Rp1159
F13.0
tp1160
a(I1840000
g1
(g5
S'\x14\xaeG\xe1z\x94/@'
p1161
tp1162
Rp1163
g1
(g5
S'\x14\xaeG\xe1z\x94/@'
p1164
tp1165
Rp1166
F15.0
tp1167
a(I1850000
g1
(g5
S'\n\xd7\xa3p=\n0@'
p1168
tp1169
Rp1170
g1
(g5
S'\n\xd7\xa3p=\n0@'
p1171
tp1172
Rp1173
F18.0
tp1174
a(I1860000
g1
(g5
S'=\n\xd7\xa3p=0@'
p1175
tp1176
Rp1177
g1
(g5
S'=\n\xd7\xa3p=0@'
p1178
tp1179
Rp1180
F16.0
tp1181
a(I1870000
g1
(g5
S'\xecQ\xb8\x1e\x85+0@'
p1182
tp1183
Rp1184
g1180
F15.0
tp1185
a(I1880000
g1
(g5
S'3333330@'
p1186
tp1187
Rp1188
g1
(g5
S'\x00\x00\x00\x00\x00@0@'
p1189
tp1190
Rp1191
F12.0
tp1192
a(I1890000
g1
(g5
S'=\n\xd7\xa3p=0@'
p1193
tp1194
Rp1195
g1191
F16.0
tp1196
a(I1900000
g1
(g5
S'\n\xd7\xa3p=J0@'
p1197
tp1198
Rp1199
g1
(g5
S'\x9a\x99\x99\x99\x99Y0@'
p1200
tp1201
Rp1202
F13.0
tp1203
a(I1910000
g1
(g5
S'\xcd\xcc\xcc\xcc\xccL0@'
p1204
tp1205
Rp1206
g1202
F12.0
tp1207
a(I1920000
g1
(g5
S'\x00\x00\x00\x00\x00@0@'
p1208
tp1209
Rp1210
g1202
F14.0
tp1211
a(I1930000
g1
(g5
S'\xcd\xcc\xcc\xcc\xccL0@'
p1212
tp1213
Rp1214
g1202
F19.0
tp1215
a(I1940000
g1
(g5
S'ffffff0@'
p1216
tp1217
Rp1218
g1
(g5
S'ffffff0@'
p1219
tp1220
Rp1221
F18.0
tp1222
a(I1950000
g1
(g5
S'\xecQ\xb8\x1e\x85k0@'
p1223
tp1224
Rp1225
g1
(g5
S'\xecQ\xb8\x1e\x85k0@'
p1226
tp1227
Rp1228
F19.0
tp1229
a(I1960000
g1
(g5
S'\x00\x00\x00\x00\x00\x800@'
p1230
tp1231
Rp1232
g1
(g5
S'\x00\x00\x00\x00\x00\x800@'
p1233
tp1234
Rp1235
F18.0
tp1236
a(I1970000
g1
(g5
S'\xb8\x1e\x85\xebQx0@'
p1237
tp1238
Rp1239
g1235
F18.0
tp1240
a(I1980000
g1
(g5
S'\xf6(\\\x8f\xc2u0@'
p1241
tp1242
Rp1243
g1235
F20.0
tp1244
a(I1990000
g1
(g5
S'33333s0@'
p1245
tp1246
Rp1247
g1235
F20.0
tp1248
a(I2000000
g1
(g5
S'\xf6(\\\x8f\xc2u0@'
p1249
tp1250
Rp1251
g1235
F14.0
tp1252
a(I2010000
g1
(g5
S'\xc3\xf5(\\\x8f\x820@'
p1253
tp1254
Rp1255
g1
(g5
S'\xc3\xf5(\\\x8f\x820@'
p1256
tp1257
Rp1258
F17.0
tp1259
a(I2020000
g1
(g5
S'\x8f\xc2\xf5(\\\x8f0@'
p1260
tp1261
Rp1262
g1
(g5
S'R\xb8\x1e\x85\xeb\x910@'
p1263
tp1264
Rp1265
F16.0
tp1266
a(I2030000
g1
(g5
S'\x1f\x85\xebQ\xb8\x9e0@'
p1267
tp1268
Rp1269
g1
(g5
S'\xe1z\x14\xaeG\xa10@'
p1270
tp1271
Rp1272
F17.0
tp1273
a(I2040000
g1
(g5
S'\xa4p=\n\xd7\xa30@'
p1274
tp1275
Rp1276
g1
(g5
S')\\\x8f\xc2\xf5\xa80@'
p1277
tp1278
Rp1279
F20.0
tp1280
a(I2050000
g1
(g5
S'\xaeG\xe1z\x14\xae0@'
p1281
tp1282
Rp1283
g1
(g5
S'\xaeG\xe1z\x14\xae0@'
p1284
tp1285
Rp1286
F17.0
tp1287
a(I2060000
g1
(g5
S'\x85\xebQ\xb8\x1e\xc50@'
p1288
tp1289
Rp1290
g1
(g5
S'\x85\xebQ\xb8\x1e\xc50@'
p1291
tp1292
Rp1293
F18.0
tp1294
a(I2070000
g1
(g5
S'\xc3\xf5(\\\x8f\xc20@'
p1295
tp1296
Rp1297
g1
(g5
S'\x8f\xc2\xf5(\\\xcf0@'
p1298
tp1299
Rp1300
F17.0
tp1301
a(I2080000
g1
(g5
S'\x85\xebQ\xb8\x1e\xc50@'
p1302
tp1303
Rp1304
g1300
F17.0
tp1305
a(I2090000
g1
(g5
S'\n\xd7\xa3p=\xca0@'
p1306
tp1307
Rp1308
g1
(g5
S'\x14\xaeG\xe1z\xd40@'
p1309
tp1310
Rp1311
F20.0
tp1312
a(I2100000
g1
(g5
S'\xaeG\xe1z\x14\xee0@'
p1313
tp1314
Rp1315
g1
(g5
S'\xaeG\xe1z\x14\xee0@'
p1316
tp1317
Rp1318
F18.0
tp1319
a(I2110000
g1
(g5
S'33333\xf30@'
p1320
tp1321
Rp1322
g1
(g5
S'\xf6(\\\x8f\xc2\xf50@'
p1323
tp1324
Rp1325
F16.0
tp1326
a(I2120000
g1
(g5
S'=\n\xd7\xa3p\xfd0@'
p1327
tp1328
Rp1329
g1
(g5
S'=\n\xd7\xa3p\xfd0@'
p1330
tp1331
Rp1332
F17.0
tp1333
a(I2130000
g1
(g5
S'\xd7\xa3p=\n\x171@'
p1334
tp1335
Rp1336
g1
(g5
S'\xd7\xa3p=\n\x171@'
p1337
tp1338
Rp1339
F18.0
tp1340
a(I2140000
g1
(g5
S'{\x14\xaeG\xe1:1@'
p1341
tp1342
Rp1343
g1
(g5
S'{\x14\xaeG\xe1:1@'
p1344
tp1345
Rp1346
F18.0
tp1347
a(I2150000
g1
(g5
S'\xe1z\x14\xaeG!1@'
p1348
tp1349
Rp1350
g1346
F18.0
tp1351
a(I2160000
g1
(g5
S'q=\n\xd7\xa301@'
p1352
tp1353
Rp1354
g1346
F16.0
tp1355
a(I2170000
g1
(g5
S'\xf6(\\\x8f\xc251@'
p1356
tp1357
Rp1358
g1346
F20.0
tp1359
a(I2180000
g1
(g5
S'=\n\xd7\xa3p=1@'
p1360
tp1361
Rp1362
g1
(g5
S'\x85\xebQ\xb8\x1eE1@'
p1363
tp1364
Rp1365
F13.0
tp1366
a(I2190000
g1
(g5
S'H\xe1z\x14\xaeG1@'
p1367
tp1368
Rp1369
g1
(g5
S'\xcd\xcc\xcc\xcc\xccL1@'
p1370
tp1371
Rp1372
F19.0
tp1373
a(I2200000
g1
(g5
S'\x8f\xc2\xf5(\\O1@'
p1374
tp1375
Rp1376
g1
(g5
S'\x14\xaeG\xe1zT1@'
p1377
tp1378
Rp1379
F16.0
tp1380
a(I2210000
g1
(g5
S'\\\x8f\xc2\xf5(\\1@'
p1381
tp1382
Rp1383
g1
(g5
S'\\\x8f\xc2\xf5(\\1@'
p1384
tp1385
Rp1386
F19.0
tp1387
a(I2220000
g1
(g5
S'\xa4p=\n\xd7c1@'
p1388
tp1389
Rp1390
g1
(g5
S')\\\x8f\xc2\xf5h1@'
p1391
tp1392
Rp1393
F17.0
tp1394
a(I2230000
g1
(g5
S')\\\x8f\xc2\xf5h1@'
p1395
tp1396
Rp1397
g1393
F19.0
tp1398
a(I2240000
g1
(g5
S'\x00\x00\x00\x00\x00@1@'
p1399
tp1400
Rp1401
g1393
F16.0
tp1402
a(I2250000
g1
(g5
S'\xcd\xcc\xcc\xcc\xccL1@'
p1403
tp1404
Rp1405
g1393
F20.0
tp1406
a(I2260000
g1
(g5
S'\xcd\xcc\xcc\xcc\xccL1@'
p1407
tp1408
Rp1409
g1393
F18.0
tp1410
a(I2270000
g1
(g5
S'\xd7\xa3p=\nW1@'
p1411
tp1412
Rp1413
g1393
F14.0
tp1414
a(I2280000
g1
(g5
S'\\\x8f\xc2\xf5(\\1@'
p1415
tp1416
Rp1417
g1393
F19.0
tp1418
a(I2290000
g1
(g5
S'ffffff1@'
p1419
tp1420
Rp1421
g1393
F20.0
tp1422
a(I2300000
g1
(g5
S'\xe1z\x14\xaeGa1@'
p1423
tp1424
Rp1425
g1
(g5
S'\xb8\x1e\x85\xebQx1@'
p1426
tp1427
Rp1428
F18.0
tp1429
a(I2310000
g1
(g5
S'\xecQ\xb8\x1e\x85k1@'
p1430
tp1431
Rp1432
g1428
F16.0
tp1433
a(I2320000
g1
(g5
S'\x85\xebQ\xb8\x1e\x851@'
p1434
tp1435
Rp1436
g1
(g5
S'\x85\xebQ\xb8\x1e\x851@'
p1437
tp1438
Rp1439
F20.0
tp1440
a(I2330000
g1
(g5
S'\x1f\x85\xebQ\xb8\x9e1@'
p1441
tp1442
Rp1443
g1
(g5
S'\x1f\x85\xebQ\xb8\x9e1@'
p1444
tp1445
Rp1446
F19.0
tp1447
a(I2340000
g1
(g5
S'\\\x8f\xc2\xf5(\x9c1@'
p1448
tp1449
Rp1450
g1
(g5
S'\xe1z\x14\xaeG\xa11@'
p1451
tp1452
Rp1453
F21.0
tp1454
a(I2350000
g1
(g5
S'{\x14\xaeG\xe1\xba1@'
p1455
tp1456
Rp1457
g1
(g5
S'{\x14\xaeG\xe1\xba1@'
p1458
tp1459
Rp1460
F19.0
tp1461
a(I2360000
g1
(g5
S'\x85\xebQ\xb8\x1e\xc51@'
p1462
tp1463
Rp1464
g1
(g5
S'\x85\xebQ\xb8\x1e\xc51@'
p1465
tp1466
Rp1467
F20.0
tp1468
a(I2370000
g1
(g5
S'R\xb8\x1e\x85\xeb\xd11@'
p1469
tp1470
Rp1471
g1
(g5
S'R\xb8\x1e\x85\xeb\xd11@'
p1472
tp1473
Rp1474
F18.0
tp1475
a(I2380000
g1
(g5
S'\xf6(\\\x8f\xc2\xb51@'
p1476
tp1477
Rp1478
g1474
F11.0
tp1479
a(I2390000
g1
(g5
S'\xc3\xf5(\\\x8f\xc21@'
p1480
tp1481
Rp1482
g1474
F19.0
tp1483
a(I2400000
g1
(g5
S')\\\x8f\xc2\xf5\xa81@'
p1484
tp1485
Rp1486
g1474
F19.0
tp1487
a(I2410000
g1
(g5
S'33333\xb31@'
p1488
tp1489
Rp1490
g1474
F17.0
tp1491
a(I2420000
g1
(g5
S'{\x14\xaeG\xe1\xba1@'
p1492
tp1493
Rp1494
g1474
F17.0
tp1495
a(I2430000
g1
(g5
S'\xcd\xcc\xcc\xcc\xcc\xcc1@'
p1496
tp1497
Rp1498
g1474
F20.0
tp1499
a(I2440000
g1
(g5
S'\\\x8f\xc2\xf5(\xdc1@'
p1500
tp1501
Rp1502
g1
(g5
S'\\\x8f\xc2\xf5(\xdc1@'
p1503
tp1504
Rp1505
F20.0
tp1506
a(I2450000
g1
(g5
S'\xc3\xf5(\\\x8f\x022@'
p1507
tp1508
Rp1509
g1
(g5
S'\xc3\xf5(\\\x8f\x022@'
p1510
tp1511
Rp1512
F21.0
tp1513
a(I2460000
g1
(g5
S'{\x14\xaeG\xe1\xfa1@'
p1514
tp1515
Rp1516
g1512
F19.0
tp1517
a(I2470000
g1
(g5
S'\xaeG\xe1z\x14\xee1@'
p1518
tp1519
Rp1520
g1512
F18.0
tp1521
a(I2480000
g1
(g5
S'R\xb8\x1e\x85\xeb\x112@'
p1522
tp1523
Rp1524
g1
(g5
S'R\xb8\x1e\x85\xeb\x112@'
p1525
tp1526
Rp1527
F19.0
tp1528
a(I2490000
g1
(g5
S'\x8f\xc2\xf5(\\\x0f2@'
p1529
tp1530
Rp1531
g1527
F19.0
tp1532
a(I2500000
g1
(g5
S'\xd7\xa3p=\n\x172@'
p1533
tp1534
Rp1535
g1
(g5
S'\xd7\xa3p=\n\x172@'
p1536
tp1537
Rp1538
F19.0
tp1539
a(I2510000
g1
(g5
S'\x1f\x85\xebQ\xb8\x1e2@'
p1540
tp1541
Rp1542
g1
(g5
S'\x1f\x85\xebQ\xb8\x1e2@'
p1543
tp1544
Rp1545
F18.0
tp1546
a(I2520000
g1
(g5
S'\x1f\x85\xebQ\xb8\x1e2@'
p1547
tp1548
Rp1549
g1
(g5
S'\xa4p=\n\xd7#2@'
p1550
tp1551
Rp1552
F17.0
tp1553
a(I2530000
g1
(g5
S'R\xb8\x1e\x85\xeb\x112@'
p1554
tp1555
Rp1556
g1552
F19.0
tp1557
a(I2540000
g1
(g5
S'\x14\xaeG\xe1z\x142@'
p1558
tp1559
Rp1560
g1552
F20.0
tp1561
a(I2550000
g1
(g5
S'\xaeG\xe1z\x14\xee1@'
p1562
tp1563
Rp1564
g1552
F13.0
tp1565
a(I2560000
g1
(g5
S'33333\xf31@'
p1566
tp1567
Rp1568
g1552
F19.0
tp1569
a(I2570000
g1
(g5
S'\xf6(\\\x8f\xc2\xf51@'
p1570
tp1571
Rp1572
g1552
F19.0
tp1573
a(I2580000
g1
(g5
S')\\\x8f\xc2\xf5\xe81@'
p1574
tp1575
Rp1576
g1552
F17.0
tp1577
a(I2590000
g1
(g5
S'\xb8\x1e\x85\xebQ\xf81@'
p1578
tp1579
Rp1580
g1552
F19.0
tp1581
a(I2600000
g1
(g5
S'\x85\xebQ\xb8\x1e\x052@'
p1582
tp1583
Rp1584
g1552
F19.0
tp1585
a(I2610000
g1
(g5
S'{\x14\xaeG\xe1\xfa1@'
p1586
tp1587
Rp1588
g1552
F16.0
tp1589
a(I2620000
g1
(g5
S'33333\xf31@'
p1590
tp1591
Rp1592
g1552
F18.0
tp1593
a(I2630000
g1
(g5
S'\xb8\x1e\x85\xebQ\xf81@'
p1594
tp1595
Rp1596
g1552
F18.0
tp1597
a(I2640000
g1
(g5
S'33333\xf31@'
p1598
tp1599
Rp1600
g1552
F19.0
tp1601
a(I2650000
g1
(g5
S'\xf6(\\\x8f\xc2\xf51@'
p1602
tp1603
Rp1604
g1552
F20.0
tp1605
a(I2660000
g1
(g5
S'R\xb8\x1e\x85\xeb\x112@'
p1606
tp1607
Rp1608
g1552
F18.0
tp1609
a(I2670000
g1
(g5
S'\xd7\xa3p=\n\x172@'
p1610
tp1611
Rp1612
g1552
F20.0
tp1613
a(I2680000
g1
(g5
S'\x1f\x85\xebQ\xb8\x1e2@'
p1614
tp1615
Rp1616
g1552
F19.0
tp1617
a(I2690000
g1
(g5
S'\x85\xebQ\xb8\x1eE2@'
p1618
tp1619
Rp1620
g1
(g5
S'\x85\xebQ\xb8\x1eE2@'
p1621
tp1622
Rp1623
F21.0
tp1624
a(I2700000
g1
(g5
S'\xcd\xcc\xcc\xcc\xccL2@'
p1625
tp1626
Rp1627
g1
(g5
S'\xcd\xcc\xcc\xcc\xccL2@'
p1628
tp1629
Rp1630
F20.0
tp1631
a(I2710000
g1
(g5
S'=\n\xd7\xa3p=2@'
p1632
tp1633
Rp1634
g1630
F15.0
tp1635
a(I2720000
g1
(g5
S'\x85\xebQ\xb8\x1eE2@'
p1636
tp1637
Rp1638
g1630
F19.0
tp1639
a(I2730000
g1
(g5
S'\x8f\xc2\xf5(\\O2@'
p1640
tp1641
Rp1642
g1
(g5
S'\x8f\xc2\xf5(\\O2@'
p1643
tp1644
Rp1645
F21.0
tp1646
a(I2740000
g1
(g5
S'\x9a\x99\x99\x99\x99Y2@'
p1647
tp1648
Rp1649
g1
(g5
S'\x9a\x99\x99\x99\x99Y2@'
p1650
tp1651
Rp1652
F19.0
tp1653
a(I2750000
g1
(g5
S'\x1f\x85\xebQ\xb8^2@'
p1654
tp1655
Rp1656
g1
(g5
S'\x1f\x85\xebQ\xb8^2@'
p1657
tp1658
Rp1659
F20.0
tp1660
a(I2760000
g1
(g5
S'R\xb8\x1e\x85\xebQ2@'
p1661
tp1662
Rp1663
g1
(g5
S'\xe1z\x14\xaeGa2@'
p1664
tp1665
Rp1666
F20.0
tp1667
a(I2770000
g1
(g5
S'\\\x8f\xc2\xf5(\\2@'
p1668
tp1669
Rp1670
g1666
F18.0
tp1671
a(I2780000
g1
(g5
S'33333s2@'
p1672
tp1673
Rp1674
g1
(g5
S'33333s2@'
p1675
tp1676
Rp1677
F19.0
tp1678
a(I2790000
g1
(g5
S'H\xe1z\x14\xae\x872@'
p1679
tp1680
Rp1681
g1
(g5
S'\xcd\xcc\xcc\xcc\xcc\x8c2@'
p1682
tp1683
Rp1684
F18.0
tp1685
a(I2800000
g1
(g5
S'\x14\xaeG\xe1z\x942@'
p1686
tp1687
Rp1688
g1
(g5
S'\x9a\x99\x99\x99\x99\x992@'
p1689
tp1690
Rp1691
F19.0
tp1692
a(I2810000
g1
(g5
S'\xaeG\xe1z\x14\xae2@'
p1693
tp1694
Rp1695
g1
(g5
S'\xaeG\xe1z\x14\xae2@'
p1696
tp1697
Rp1698
F19.0
tp1699
a(I2820000
g1
(g5
S'\xaeG\xe1z\x14\xae2@'
p1700
tp1701
Rp1702
g1698
F19.0
tp1703
a(I2830000
g1
(g5
S'\x85\xebQ\xb8\x1e\xc52@'
p1704
tp1705
Rp1706
g1
(g5
S'\x85\xebQ\xb8\x1e\xc52@'
p1707
tp1708
Rp1709
F20.0
tp1710
a(I2840000
g1
(g5
S'\xc3\xf5(\\\x8f\xc22@'
p1711
tp1712
Rp1713
g1
(g5
S'\xd7\xa3p=\n\xd72@'
p1714
tp1715
Rp1716
F19.0
tp1717
a(I2850000
g1
(g5
S'\n\xd7\xa3p=\xca2@'
p1718
tp1719
Rp1720
g1716
F19.0
tp1721
a(I2860000
g1
(g5
S'\xe1z\x14\xaeG\xe12@'
p1722
tp1723
Rp1724
g1
(g5
S'\xe1z\x14\xaeG\xe12@'
p1725
tp1726
Rp1727
F19.0
tp1728
a(I2870000
g1
(g5
S'\x14\xaeG\xe1z\xd42@'
p1729
tp1730
Rp1731
g1727
F16.0
tp1732
a(I2880000
g1
(g5
S'\n\xd7\xa3p=\xca2@'
p1733
tp1734
Rp1735
g1727
F18.0
tp1736
a(I2890000
g1
(g5
S'\xaeG\xe1z\x14\xae2@'
p1737
tp1738
Rp1739
g1727
F17.0
tp1740
a(I2900000
g1
(g5
S'\xb8\x1e\x85\xebQ\xb82@'
p1741
tp1742
Rp1743
g1727
F19.0
tp1744
a(I2910000
g1
(g5
S'H\xe1z\x14\xae\xc72@'
p1745
tp1746
Rp1747
g1727
F20.0
tp1748
a(I2920000
g1
(g5
S'H\xe1z\x14\xae\xc72@'
p1749
tp1750
Rp1751
g1727
F19.0
tp1752
a(I2930000
g1
(g5
S'\x14\xaeG\xe1z\xd42@'
p1753
tp1754
Rp1755
g1727
F21.0
tp1756
a(I2940000
g1
(g5
S')\\\x8f\xc2\xf5\xe82@'
p1757
tp1758
Rp1759
g1
(g5
S'q=\n\xd7\xa3\xf02@'
p1760
tp1761
Rp1762
F17.0
tp1763
a(I2950000
g1
(g5
S'=\n\xd7\xa3p\xfd2@'
p1764
tp1765
Rp1766
g1
(g5
S'\x00\x00\x00\x00\x00\x003@'
p1767
tp1768
Rp1769
F19.0
tp1770
a(I2960000
g1
(g5
S'\x14\xaeG\xe1z\x143@'
p1771
tp1772
Rp1773
g1
(g5
S'\x14\xaeG\xe1z\x143@'
p1774
tp1775
Rp1776
F20.0
tp1777
a(I2970000
g1
(g5
S'\x1f\x85\xebQ\xb8\x1e3@'
p1778
tp1779
Rp1780
g1
(g5
S'\x1f\x85\xebQ\xb8\x1e3@'
p1781
tp1782
Rp1783
F20.0
tp1784
a(I2980000
g1
(g5
S'\x9a\x99\x99\x99\x99\x193@'
p1785
tp1786
Rp1787
g1
(g5
S'\xa4p=\n\xd7#3@'
p1788
tp1789
Rp1790
F15.0
tp1791
a(I2990000
g1
(g5
S'\xe1z\x14\xaeG!3@'
p1792
tp1793
Rp1794
g1
(g5
S'fffff&3@'
p1795
tp1796
Rp1797
F19.0
tp1798
a(I3000000
g1
(g5
S'\xd7\xa3p=\n\x173@'
p1799
tp1800
Rp1801
g1797
F19.0
tp1802
a(I3010000
g1
(g5
S'\x9a\x99\x99\x99\x99\x193@'
p1803
tp1804
Rp1805
g1797
F19.0
tp1806
a(I3020000
g1
(g5
S'\\\x8f\xc2\xf5(\x1c3@'
p1807
tp1808
Rp1809
g1797
F20.0
tp1810
a(I3030000
g1
(g5
S'\xa4p=\n\xd7#3@'
p1811
tp1812
Rp1813
g1
(g5
S')\\\x8f\xc2\xf5(3@'
p1814
tp1815
Rp1816
F19.0
tp1817
a(I3040000
g1
(g5
S'H\xe1z\x14\xae\x073@'
p1818
tp1819
Rp1820
g1816
F17.0
tp1821
a(I3050000
g1
(g5
S'=\n\xd7\xa3p\xfd2@'
p1822
tp1823
Rp1824
g1816
F19.0
tp1825
a(I3060000
g1
(g5
S'\xc3\xf5(\\\x8f\x023@'
p1826
tp1827
Rp1828
g1816
F19.0
tp1829
a(I3070000
g1
(g5
S'\x8f\xc2\xf5(\\\x0f3@'
p1830
tp1831
Rp1832
g1816
F20.0
tp1833
a(I3080000
g1
(g5
S'\x8f\xc2\xf5(\\\x0f3@'
p1834
tp1835
Rp1836
g1816
F17.0
tp1837
a(I3090000
g1
(g5
S'\x9a\x99\x99\x99\x99\x193@'
p1838
tp1839
Rp1840
g1816
F19.0
tp1841
a(I3100000
g1
(g5
S'fffff&3@'
p1842
tp1843
Rp1844
g1816
F20.0
tp1845
a(I3110000
g1
(g5
S'\xecQ\xb8\x1e\x85+3@'
p1846
tp1847
Rp1848
g1
(g5
S'\xaeG\xe1z\x14.3@'
p1849
tp1850
Rp1851
F20.0
tp1852
a(I3120000
g1
(g5
S'\x1f\x85\xebQ\xb8\x1e3@'
p1853
tp1854
Rp1855
g1851
F19.0
tp1856
a(I3130000
g1
(g5
S'\\\x8f\xc2\xf5(\x1c3@'
p1857
tp1858
Rp1859
g1851
F20.0
tp1860
a(I3140000
g1
(g5
S'\x14\xaeG\xe1z\x143@'
p1861
tp1862
Rp1863
g1851
F21.0
tp1864
a(I3150000
g1
(g5
S'\x9a\x99\x99\x99\x99\x193@'
p1865
tp1866
Rp1867
g1851
F21.0
tp1868
a(I3160000
g1
(g5
S'R\xb8\x1e\x85\xeb\x113@'
p1869
tp1870
Rp1871
g1851
F18.0
tp1872
a(I3170000
g1
(g5
S'\x8f\xc2\xf5(\\\x0f3@'
p1873
tp1874
Rp1875
g1851
F20.0
tp1876
a(I3180000
g1
(g5
S'\xd7\xa3p=\n\x173@'
p1877
tp1878
Rp1879
g1851
F20.0
tp1880
a(I3190000
g1
(g5
S'fffff&3@'
p1881
tp1882
Rp1883
g1851
F20.0
tp1884
a(I3200000
g1
(g5
S'fffff&3@'
p1885
tp1886
Rp1887
g1
(g5
S'q=\n\xd7\xa303@'
p1888
tp1889
Rp1890
F18.0
tp1891
a(I3210000
g1
(g5
S'\xa4p=\n\xd7#3@'
p1892
tp1893
Rp1894
g1890
F19.0
tp1895
a(I3220000
g1
(g5
S'\xf6(\\\x8f\xc253@'
p1896
tp1897
Rp1898
g1
(g5
S'\xf6(\\\x8f\xc253@'
p1899
tp1900
Rp1901
F20.0
tp1902
a(I3230000
g1
(g5
S'\n\xd7\xa3p=J3@'
p1903
tp1904
Rp1905
g1
(g5
S'\n\xd7\xa3p=J3@'
p1906
tp1907
Rp1908
F20.0
tp1909
a(I3240000
g1
(g5
S'H\xe1z\x14\xaeG3@'
p1910
tp1911
Rp1912
g1908
F18.0
tp1913
a(I3250000
g1
(g5
S'=\n\xd7\xa3p=3@'
p1914
tp1915
Rp1916
g1
(g5
S'\xcd\xcc\xcc\xcc\xccL3@'
p1917
tp1918
Rp1919
F20.0
tp1920
a(I3260000
g1
(g5
S'\xc3\xf5(\\\x8fB3@'
p1921
tp1922
Rp1923
g1919
F20.0
tp1924
a(I3270000
g1
(g5
S'\n\xd7\xa3p=J3@'
p1925
tp1926
Rp1927
g1919
F18.0
tp1928
a(I3280000
g1
(g5
S'\xf6(\\\x8f\xc253@'
p1929
tp1930
Rp1931
g1919
F19.0
tp1932
a(I3290000
g1
(g5
S'\xf6(\\\x8f\xc253@'
p1933
tp1934
Rp1935
g1919
F19.0
tp1936
a(I3300000
g1
(g5
S'\xb8\x1e\x85\xebQ83@'
p1937
tp1938
Rp1939
g1919
F20.0
tp1940
a(I3310000
g1
(g5
S'H\xe1z\x14\xaeG3@'
p1941
tp1942
Rp1943
g1919
F19.0
tp1944
a(I3320000
g1
(g5
S'\x9a\x99\x99\x99\x99Y3@'
p1945
tp1946
Rp1947
g1
(g5
S'\x9a\x99\x99\x99\x99Y3@'
p1948
tp1949
Rp1950
F19.0
tp1951
a(I3330000
g1
(g5
S'\xcd\xcc\xcc\xcc\xccL3@'
p1952
tp1953
Rp1954
g1950
F21.0
tp1955
a(I3340000
g1
(g5
S'\n\xd7\xa3p=J3@'
p1956
tp1957
Rp1958
g1950
F20.0
tp1959
a(I3350000
g1
(g5
S'\x1f\x85\xebQ\xb8^3@'
p1960
tp1961
Rp1962
g1
(g5
S'\x1f\x85\xebQ\xb8^3@'
p1963
tp1964
Rp1965
F20.0
tp1966
a(I3360000
g1
(g5
S')\\\x8f\xc2\xf5h3@'
p1967
tp1968
Rp1969
g1
(g5
S')\\\x8f\xc2\xf5h3@'
p1970
tp1971
Rp1972
F21.0
tp1973
a(I3370000
g1
(g5
S'\xf6(\\\x8f\xc2u3@'
p1974
tp1975
Rp1976
g1
(g5
S'\xb8\x1e\x85\xebQx3@'
p1977
tp1978
Rp1979
F20.0
tp1980
a(I3380000
g1
(g5
S'\xaeG\xe1z\x14n3@'
p1981
tp1982
Rp1983
g1979
F19.0
tp1984
a(I3390000
g1
(g5
S'\x00\x00\x00\x00\x00\x803@'
p1985
tp1986
Rp1987
g1
(g5
S'\x00\x00\x00\x00\x00\x803@'
p1988
tp1989
Rp1990
F21.0
tp1991
a(I3400000
g1
(g5
S'H\xe1z\x14\xae\x873@'
p1992
tp1993
Rp1994
g1
(g5
S'\n\xd7\xa3p=\x8a3@'
p1995
tp1996
Rp1997
F20.0
tp1998
a(I3410000
g1
(g5
S'R\xb8\x1e\x85\xeb\x913@'
p1999
tp2000
Rp2001
g1
(g5
S'R\xb8\x1e\x85\xeb\x913@'
p2002
tp2003
Rp2004
F20.0
tp2005
a(I3420000
g1
(g5
S'\xd7\xa3p=\n\x973@'
p2006
tp2007
Rp2008
g1
(g5
S'\xd7\xa3p=\n\x973@'
p2009
tp2010
Rp2011
F20.0
tp2012
a(I3430000
g1
(g5
S'q=\n\xd7\xa3\xb03@'
p2013
tp2014
Rp2015
g1
(g5
S'q=\n\xd7\xa3\xb03@'
p2016
tp2017
Rp2018
F20.0
tp2019
a(I3440000
g1
(g5
S'{\x14\xaeG\xe1\xba3@'
p2020
tp2021
Rp2022
g1
(g5
S'{\x14\xaeG\xe1\xba3@'
p2023
tp2024
Rp2025
F20.0
tp2026
a(I3450000
g1
(g5
S'\x14\xaeG\xe1z\xd43@'
p2027
tp2028
Rp2029
g1
(g5
S'\x14\xaeG\xe1z\xd43@'
p2030
tp2031
Rp2032
F21.0
tp2033
a(I3460000
g1
(g5
S'fffff\xe63@'
p2034
tp2035
Rp2036
g1
(g5
S')\\\x8f\xc2\xf5\xe83@'
p2037
tp2038
Rp2039
F20.0
tp2040
a(I3470000
g1
(g5
S'33333\xf33@'
p2041
tp2042
Rp2043
g1
(g5
S'33333\xf33@'
p2044
tp2045
Rp2046
F20.0
tp2047
a(I3480000
g1
(g5
S'\xf6(\\\x8f\xc2\xf53@'
p2048
tp2049
Rp2050
g1
(g5
S'\xf6(\\\x8f\xc2\xf53@'
p2051
tp2052
Rp2053
F19.0
tp2054
a(I3490000
g1
(g5
S'33333\xf33@'
p2055
tp2056
Rp2057
g1
(g5
S'\xb8\x1e\x85\xebQ\xf83@'
p2058
tp2059
Rp2060
F21.0
tp2061
a(I3500000
g1
(g5
S'\xb8\x1e\x85\xebQ\xf83@'
p2062
tp2063
Rp2064
g2060
F20.0
tp2065
a(I3510000
g1
(g5
S'\xf6(\\\x8f\xc2\xf53@'
p2066
tp2067
Rp2068
g1
(g5
S'\x00\x00\x00\x00\x00\x004@'
p2069
tp2070
Rp2071
F18.0
tp2072
a(I3520000
g1
(g5
S'{\x14\xaeG\xe1\xfa3@'
p2073
tp2074
Rp2075
g2071
F19.0
tp2076
a(I3530000
g1
(g5
S'\x85\xebQ\xb8\x1e\x054@'
p2077
tp2078
Rp2079
g1
(g5
S'\x85\xebQ\xb8\x1e\x054@'
p2080
tp2081
Rp2082
F21.0
tp2083
a(I3540000
g1
(g5
S'\x85\xebQ\xb8\x1e\x054@'
p2084
tp2085
Rp2086
g1
(g5
S'H\xe1z\x14\xae\x074@'
p2087
tp2088
Rp2089
F21.0
tp2090
a(I3550000
g1
(g5
S'\xcd\xcc\xcc\xcc\xcc\x0c4@'
p2091
tp2092
Rp2093
g1
(g5
S'\xcd\xcc\xcc\xcc\xcc\x0c4@'
p2094
tp2095
Rp2096
F20.0
tp2097
a(I3560000
g1
(g5
S'\x14\xaeG\xe1z\x144@'
p2098
tp2099
Rp2100
g1
(g5
S'\x14\xaeG\xe1z\x144@'
p2101
tp2102
Rp2103
F21.0
tp2104
a(I3570000
g1
(g5
S'\xd7\xa3p=\n\x174@'
p2105
tp2106
Rp2107
g1
(g5
S'\xd7\xa3p=\n\x174@'
p2108
tp2109
Rp2110
F21.0
tp2111
a(I3580000
g1
(g5
S'\\\x8f\xc2\xf5(\x1c4@'
p2112
tp2113
Rp2114
g1
(g5
S'\x1f\x85\xebQ\xb8\x1e4@'
p2115
tp2116
Rp2117
F20.0
tp2118
a(I3590000
g1
(g5
S'\xd7\xa3p=\n\x174@'
p2119
tp2120
Rp2121
g2117
F21.0
tp2122
a(I3600000
g1
(g5
S'\\\x8f\xc2\xf5(\x1c4@'
p2123
tp2124
Rp2125
g2117
F20.0
tp2126
a(I3610000
g1
(g5
S'\x14\xaeG\xe1z\x144@'
p2127
tp2128
Rp2129
g2117
F18.0
tp2130
a(I3620000
g1
(g5
S'\x8f\xc2\xf5(\\\x0f4@'
p2131
tp2132
Rp2133
g2117
F20.0
tp2134
a(I3630000
g1
(g5
S'\x00\x00\x00\x00\x00\x004@'
p2135
tp2136
Rp2137
g2117
F19.0
tp2138
a(I3640000
g1
(g5
S'H\xe1z\x14\xae\x074@'
p2139
tp2140
Rp2141
g2117
F21.0
tp2142
a(I3650000
g1
(g5
S'\n\xd7\xa3p=\n4@'
p2143
tp2144
Rp2145
g2117
F20.0
tp2146
a(I3660000
g1
(g5
S'\x8f\xc2\xf5(\\\x0f4@'
p2147
tp2148
Rp2149
g2117
F21.0
tp2150
a(I3670000
g1
(g5
S'\x9a\x99\x99\x99\x99\x194@'
p2151
tp2152
Rp2153
g2117
F20.0
tp2154
a(I3680000
g1
(g5
S'\xe1z\x14\xaeG!4@'
p2155
tp2156
Rp2157
g1
(g5
S'\xe1z\x14\xaeG!4@'
p2158
tp2159
Rp2160
F20.0
tp2161
a(I3690000
g1
(g5
S'fffff&4@'
p2162
tp2163
Rp2164
g1
(g5
S'fffff&4@'
p2165
tp2166
Rp2167
F21.0
tp2168
a(I3700000
g1
(g5
S')\\\x8f\xc2\xf5(4@'
p2169
tp2170
Rp2171
g1
(g5
S')\\\x8f\xc2\xf5(4@'
p2172
tp2173
Rp2174
F21.0
tp2175
a(I3710000
g1
(g5
S'\xa4p=\n\xd7#4@'
p2176
tp2177
Rp2178
g2174
F20.0
tp2179
a(I3720000
g1
(g5
S'\xa4p=\n\xd7#4@'
p2180
tp2181
Rp2182
g2174
F20.0
tp2183
a(I3730000
g1
(g5
S'q=\n\xd7\xa304@'
p2184
tp2185
Rp2186
g1
(g5
S'\xf6(\\\x8f\xc254@'
p2187
tp2188
Rp2189
F19.0
tp2190
a(I3740000
g1
(g5
S'3333334@'
p2191
tp2192
Rp2193
g2189
F20.0
tp2194
a(I3750000
g1
(g5
S'q=\n\xd7\xa304@'
p2195
tp2196
Rp2197
g2189
F20.0
tp2198
a(I3760000
g1
(g5
S'\xf6(\\\x8f\xc254@'
p2199
tp2200
Rp2201
g2189
F21.0
tp2202
a(I3770000
g1
(g5
S'\x85\xebQ\xb8\x1eE4@'
p2203
tp2204
Rp2205
g1
(g5
S'\x85\xebQ\xb8\x1eE4@'
p2206
tp2207
Rp2208
F20.0
tp2209
a(I3780000
g1
(g5
S'H\xe1z\x14\xaeG4@'
p2210
tp2211
Rp2212
g1
(g5
S'H\xe1z\x14\xaeG4@'
p2213
tp2214
Rp2215
F21.0
tp2216
a(I3790000
g1
(g5
S'\x8f\xc2\xf5(\\O4@'
p2217
tp2218
Rp2219
g1
(g5
S'\x8f\xc2\xf5(\\O4@'
p2220
tp2221
Rp2222
F21.0
tp2223
a(I3800000
g1
(g5
S'\x1f\x85\xebQ\xb8^4@'
p2224
tp2225
Rp2226
g1
(g5
S'\x1f\x85\xebQ\xb8^4@'
p2227
tp2228
Rp2229
F21.0
tp2230
a(I3810000
g1
(g5
S'\xa4p=\n\xd7c4@'
p2231
tp2232
Rp2233
g1
(g5
S'\xa4p=\n\xd7c4@'
p2234
tp2235
Rp2236
F19.0
tp2237
a(I3820000
g1
(g5
S'\xe1z\x14\xaeGa4@'
p2238
tp2239
Rp2240
g1
(g5
S'ffffff4@'
p2241
tp2242
Rp2243
F19.0
tp2244
a(I3830000
g1
(g5
S')\\\x8f\xc2\xf5h4@'
p2245
tp2246
Rp2247
g1
(g5
S')\\\x8f\xc2\xf5h4@'
p2248
tp2249
Rp2250
F20.0
tp2251
a(I3840000
g1
(g5
S'\x1f\x85\xebQ\xb8^4@'
p2252
tp2253
Rp2254
g2250
F20.0
tp2255
a(I3850000
g1
(g5
S'\x9a\x99\x99\x99\x99Y4@'
p2256
tp2257
Rp2258
g2250
F19.0
tp2259
a(I3860000
g1
(g5
S'ffffff4@'
p2260
tp2261
Rp2262
g2250
F20.0
tp2263
a(I3870000
g1
(g5
S'\xecQ\xb8\x1e\x85k4@'
p2264
tp2265
Rp2266
g1
(g5
S'\xecQ\xb8\x1e\x85k4@'
p2267
tp2268
Rp2269
F21.0
tp2270
a(I3880000
g1
(g5
S'\xb8\x1e\x85\xebQx4@'
p2271
tp2272
Rp2273
g1
(g5
S'\xb8\x1e\x85\xebQx4@'
p2274
tp2275
Rp2276
F21.0
tp2277
a(I3890000
g1
(g5
S'33333s4@'
p2278
tp2279
Rp2280
g2276
F20.0
tp2281
a(I3900000
g1
(g5
S'33333s4@'
p2282
tp2283
Rp2284
g2276
F20.0
tp2285
a(I3910000
g1
(g5
S'q=\n\xd7\xa3p4@'
p2286
tp2287
Rp2288
g2276
F20.0
tp2289
a(I3920000
g1
(g5
S'33333s4@'
p2290
tp2291
Rp2292
g2276
F21.0
tp2293
a(I3930000
g1
(g5
S'33333s4@'
p2294
tp2295
Rp2296
g2276
F21.0
tp2297
a(I3940000
g1
(g5
S'\xf6(\\\x8f\xc2u4@'
p2298
tp2299
Rp2300
g2276
F21.0
tp2301
a(I3950000
g1
(g5
S'\xf6(\\\x8f\xc2u4@'
p2302
tp2303
Rp2304
g2276
F21.0
tp2305
a(I3960000
g1
(g5
S'\xb8\x1e\x85\xebQx4@'
p2306
tp2307
Rp2308
g1
(g5
S'{\x14\xaeG\xe1z4@'
p2309
tp2310
Rp2311
F20.0
tp2312
a(I3970000
g1
(g5
S'\xaeG\xe1z\x14n4@'
p2313
tp2314
Rp2315
g2311
F21.0
tp2316
a(I3980000
g1
(g5
S'33333s4@'
p2317
tp2318
Rp2319
g2311
F21.0
tp2320
a(I3990000
g1
(g5
S'33333s4@'
p2321
tp2322
Rp2323
g2311
F21.0
tp2324
a(I4000000
g1
(g5
S'q=\n\xd7\xa3p4@'
p2325
tp2326
Rp2327
g1
(g5
S'=\n\xd7\xa3p}4@'
p2328
tp2329
Rp2330
F19.0
tp2331
a(I4010000
g1
(g5
S'\xf6(\\\x8f\xc2u4@'
p2332
tp2333
Rp2334
g2330
F21.0
tp2335
a(I4020000
g1
(g5
S'=\n\xd7\xa3p}4@'
p2336
tp2337
Rp2338
g2330
F21.0
tp2339
a(I4030000
g1
(g5
S'\xc3\xf5(\\\x8f\x824@'
p2340
tp2341
Rp2342
g1
(g5
S'\x85\xebQ\xb8\x1e\x854@'
p2343
tp2344
Rp2345
F21.0
tp2346
a(I4040000
g1
(g5
S'=\n\xd7\xa3p}4@'
p2347
tp2348
Rp2349
g2345
F20.0
tp2350
a(I4050000
g1
(g5
S'{\x14\xaeG\xe1z4@'
p2351
tp2352
Rp2353
g2345
F21.0
tp2354
a(I4060000
g1
(g5
S'\x85\xebQ\xb8\x1e\x854@'
p2355
tp2356
Rp2357
g2345
F21.0
tp2358
a(I4070000
g1
(g5
S'\x00\x00\x00\x00\x00\x804@'
p2359
tp2360
Rp2361
g2345
F21.0
tp2362
a(I4080000
g1
(g5
S'\xc3\xf5(\\\x8f\x824@'
p2363
tp2364
Rp2365
g2345
F21.0
tp2366
a(I4090000
g1
(g5
S'\xc3\xf5(\\\x8f\x824@'
p2367
tp2368
Rp2369
g2345
F21.0
tp2370
a(I4100000
g1
(g5
S'\x85\xebQ\xb8\x1e\x854@'
p2371
tp2372
Rp2373
g1
(g5
S'H\xe1z\x14\xae\x874@'
p2374
tp2375
Rp2376
F20.0
tp2377
a(I4110000
g1
(g5
S'{\x14\xaeG\xe1z4@'
p2378
tp2379
Rp2380
g2376
F20.0
tp2381
a(I4120000
g1
(g5
S'{\x14\xaeG\xe1z4@'
p2382
tp2383
Rp2384
g2376
F21.0
tp2385
a(I4130000
g1
(g5
S'=\n\xd7\xa3p}4@'
p2386
tp2387
Rp2388
g2376
F21.0
tp2389
a(I4140000
g1
(g5
S'H\xe1z\x14\xae\x874@'
p2390
tp2391
Rp2392
g2376
F21.0
tp2393
a(I4150000
g1
(g5
S'\x85\xebQ\xb8\x1e\x854@'
p2394
tp2395
Rp2396
g2376
F21.0
tp2397
a(I4160000
g1
(g5
S'\x00\x00\x00\x00\x00\x804@'
p2398
tp2399
Rp2400
g2376
F19.0
tp2401
a(I4170000
g1
(g5
S'\n\xd7\xa3p=\x8a4@'
p2402
tp2403
Rp2404
g1
(g5
S'\n\xd7\xa3p=\x8a4@'
p2405
tp2406
Rp2407
F21.0
tp2408
a(I4180000
g1
(g5
S'R\xb8\x1e\x85\xeb\x914@'
p2409
tp2410
Rp2411
g1
(g5
S'R\xb8\x1e\x85\xeb\x914@'
p2412
tp2413
Rp2414
F21.0
tp2415
a(I4190000
g1
(g5
S'R\xb8\x1e\x85\xeb\x914@'
p2416
tp2417
Rp2418
g2414
F21.0
tp2419
a(I4200000
g1
(g5
S'H\xe1z\x14\xae\x874@'
p2420
tp2421
Rp2422
g2414
F19.0
tp2423
a(I4210000
g1
(g5
S'\n\xd7\xa3p=\x8a4@'
p2424
tp2425
Rp2426
g2414
F21.0
tp2427
a(I4220000
g1
(g5
S'\x00\x00\x00\x00\x00\x804@'
p2428
tp2429
Rp2430
g2414
F19.0
tp2431
a(I4230000
g1
(g5
S'=\n\xd7\xa3p}4@'
p2432
tp2433
Rp2434
g2414
F20.0
tp2435
a(I4240000
g1
(g5
S'\xc3\xf5(\\\x8f\x824@'
p2436
tp2437
Rp2438
g2414
F21.0
tp2439
a(I4250000
g1
(g5
S'\xc3\xf5(\\\x8f\x824@'
p2440
tp2441
Rp2442
g2414
F20.0
tp2443
a(I4260000
g1
(g5
S'\x85\xebQ\xb8\x1e\x854@'
p2444
tp2445
Rp2446
g2414
F21.0
tp2447
a(I4270000
g1
(g5
S'H\xe1z\x14\xae\x874@'
p2448
tp2449
Rp2450
g2414
F21.0
tp2451
a(I4280000
g1
(g5
S'H\xe1z\x14\xae\x874@'
p2452
tp2453
Rp2454
g2414
F20.0
tp2455
a(I4290000
g1
(g5
S'\n\xd7\xa3p=\x8a4@'
p2456
tp2457
Rp2458
g2414
F19.0
tp2459
a(I4300000
g1
(g5
S'\x85\xebQ\xb8\x1e\x854@'
p2460
tp2461
Rp2462
g2414
F20.0
tp2463
a(I4310000
g1
(g5
S'\x85\xebQ\xb8\x1e\x854@'
p2464
tp2465
Rp2466
g2414
F21.0
tp2467
a(I4320000
g1
(g5
S'{\x14\xaeG\xe1z4@'
p2468
tp2469
Rp2470
g2414
F19.0
tp2471
a(I4330000
g1
(g5
S'\x00\x00\x00\x00\x00\x804@'
p2472
tp2473
Rp2474
g2414
F21.0
tp2475
a(I4340000
g1
(g5
S'\xb8\x1e\x85\xebQx4@'
p2476
tp2477
Rp2478
g2414
F21.0
tp2479
a(I4350000
g1
(g5
S'\xb8\x1e\x85\xebQx4@'
p2480
tp2481
Rp2482
g2414
F21.0
tp2483
a(I4360000
g1
(g5
S'\xf6(\\\x8f\xc2u4@'
p2484
tp2485
Rp2486
g2414
F20.0
tp2487
a(I4370000
g1
(g5
S'\xc3\xf5(\\\x8f\x824@'
p2488
tp2489
Rp2490
g2414
F21.0
tp2491
a(I4380000
g1
(g5
S'\x85\xebQ\xb8\x1e\x854@'
p2492
tp2493
Rp2494
g2414
F21.0
tp2495
a(I4390000
g1
(g5
S'\x8f\xc2\xf5(\\\x8f4@'
p2496
tp2497
Rp2498
g2414
F21.0
tp2499
a(I4400000
g1
(g5
S'\n\xd7\xa3p=\x8a4@'
p2500
tp2501
Rp2502
g2414
F21.0
tp2503
a(I4410000
g1
(g5
S'\x85\xebQ\xb8\x1e\x854@'
p2504
tp2505
Rp2506
g2414
F21.0
tp2507
a(I4420000
g1
(g5
S'H\xe1z\x14\xae\x874@'
p2508
tp2509
Rp2510
g2414
F20.0
tp2511
a(I4430000
g1
(g5
S'\x85\xebQ\xb8\x1e\x854@'
p2512
tp2513
Rp2514
g2414
F21.0
tp2515
a(I4440000
g1
(g5
S'\xc3\xf5(\\\x8f\x824@'
p2516
tp2517
Rp2518
g2414
F20.0
tp2519
a(I4450000
g1
(g5
S'H\xe1z\x14\xae\x874@'
p2520
tp2521
Rp2522
g2414
F21.0
tp2523
a(I4460000
g1
(g5
S'\x85\xebQ\xb8\x1e\x854@'
p2524
tp2525
Rp2526
g2414
F20.0
tp2527
a(I4470000
g1
(g5
S'\xc3\xf5(\\\x8f\x824@'
p2528
tp2529
Rp2530
g2414
F21.0
tp2531
a(I4480000
g1
(g5
S'{\x14\xaeG\xe1z4@'
p2532
tp2533
Rp2534
g2414
F20.0
tp2535
a(I4490000
g1
(g5
S'H\xe1z\x14\xae\x874@'
p2536
tp2537
Rp2538
g2414
F20.0
tp2539
a(I4500000
g1
(g5
S'H\xe1z\x14\xae\x874@'
p2540
tp2541
Rp2542
g2414
F20.0
tp2543
a(I4510000
g1
(g5
S'\xcd\xcc\xcc\xcc\xcc\x8c4@'
p2544
tp2545
Rp2546
g2414
F20.0
tp2547
a(I4520000
g1
(g5
S'\xcd\xcc\xcc\xcc\xcc\x8c4@'
p2548
tp2549
Rp2550
g2414
F21.0
tp2551
a(I4530000
g1
(g5
S'\x85\xebQ\xb8\x1e\x854@'
p2552
tp2553
Rp2554
g2414
F20.0
tp2555
a(I4540000
g1
(g5
S'\x00\x00\x00\x00\x00\x804@'
p2556
tp2557
Rp2558
g2414
F20.0
tp2559
a(I4550000
g1
(g5
S'\x00\x00\x00\x00\x00\x804@'
p2560
tp2561
Rp2562
g2414
F21.0
tp2563
a(I4560000
g1
(g5
S'{\x14\xaeG\xe1z4@'
p2564
tp2565
Rp2566
g2414
F20.0
tp2567
a(I4570000
g1
(g5
S'=\n\xd7\xa3p}4@'
p2568
tp2569
Rp2570
g2414
F21.0
tp2571
a(I4580000
g1
(g5
S'33333s4@'
p2572
tp2573
Rp2574
g2414
F21.0
tp2575
a(I4590000
g1
(g5
S'\xaeG\xe1z\x14n4@'
p2576
tp2577
Rp2578
g2414
F21.0
tp2579
a(I4600000
g1
(g5
S'q=\n\xd7\xa3p4@'
p2580
tp2581
Rp2582
g2414
F21.0
tp2583
a(I4610000
g1
(g5
S'\xf6(\\\x8f\xc2u4@'
p2584
tp2585
Rp2586
g2414
F21.0
tp2587
a(I4620000
g1
(g5
S'33333s4@'
p2588
tp2589
Rp2590
g2414
F21.0
tp2591
a(I4630000
g1
(g5
S'q=\n\xd7\xa3p4@'
p2592
tp2593
Rp2594
g2414
F20.0
tp2595
a(I4640000
g1
(g5
S'33333s4@'
p2596
tp2597
Rp2598
g2414
F20.0
tp2599
a(I4650000
g1
(g5
S'\xb8\x1e\x85\xebQx4@'
p2600
tp2601
Rp2602
g2414
F20.0
tp2603
a(I4660000
g1
(g5
S'\xb8\x1e\x85\xebQx4@'
p2604
tp2605
Rp2606
g2414
F21.0
tp2607
a(I4670000
g1
(g5
S'\x00\x00\x00\x00\x00\x804@'
p2608
tp2609
Rp2610
g2414
F20.0
tp2611
a(I4680000
g1
(g5
S'=\n\xd7\xa3p}4@'
p2612
tp2613
Rp2614
g2414
F21.0
tp2615
a(I4690000
g1
(g5
S'\xb8\x1e\x85\xebQx4@'
p2616
tp2617
Rp2618
g2414
F21.0
tp2619
a(I4700000
g1
(g5
S'\xb8\x1e\x85\xebQx4@'
p2620
tp2621
Rp2622
g2414
F19.0
tp2623
a(I4710000
g1
(g5
S'33333s4@'
p2624
tp2625
Rp2626
g2414
F20.0
tp2627
a(I4720000
g1
(g5
S'33333s4@'
p2628
tp2629
Rp2630
g2414
F20.0
tp2631
a(I4730000
g1
(g5
S'\xb8\x1e\x85\xebQx4@'
p2632
tp2633
Rp2634
g2414
F20.0
tp2635
a(I4740000
g1
(g5
S'\xb8\x1e\x85\xebQx4@'
p2636
tp2637
Rp2638
g2414
F20.0
tp2639
a(I4750000
g1
(g5
S'\xc3\xf5(\\\x8f\x824@'
p2640
tp2641
Rp2642
g2414
F20.0
tp2643
a(I4760000
g1
(g5
S'\x00\x00\x00\x00\x00\x804@'
p2644
tp2645
Rp2646
g2414
F20.0
tp2647
a(I4770000
g1
(g5
S'=\n\xd7\xa3p}4@'
p2648
tp2649
Rp2650
g2414
F21.0
tp2651
a(I4780000
g1
(g5
S'=\n\xd7\xa3p}4@'
p2652
tp2653
Rp2654
g2414
F21.0
tp2655
a(I4790000
g1
(g5
S'\xc3\xf5(\\\x8f\x824@'
p2656
tp2657
Rp2658
g2414
F21.0
tp2659
a(I4800000
g1
(g5
S'\x85\xebQ\xb8\x1e\x854@'
p2660
tp2661
Rp2662
g2414
F21.0
tp2663
a(I4810000
g1
(g5
S'\x85\xebQ\xb8\x1e\x854@'
p2664
tp2665
Rp2666
g2414
F19.0
tp2667
a(I4820000
g1
(g5
S'\xcd\xcc\xcc\xcc\xcc\x8c4@'
p2668
tp2669
Rp2670
g2414
F21.0
tp2671
a(I4830000
g1
(g5
S'\x8f\xc2\xf5(\\\x8f4@'
p2672
tp2673
Rp2674
g2414
F21.0
tp2675
a(I4840000
g1
(g5
S'\n\xd7\xa3p=\x8a4@'
p2676
tp2677
Rp2678
g2414
F21.0
tp2679
a(I4850000
g1
(g5
S'\n\xd7\xa3p=\x8a4@'
p2680
tp2681
Rp2682
g2414
F21.0
tp2683
a(I4860000
g1
(g5
S'\n\xd7\xa3p=\x8a4@'
p2684
tp2685
Rp2686
g2414
F19.0
tp2687
a(I4870000
g1
(g5
S'\xcd\xcc\xcc\xcc\xcc\x8c4@'
p2688
tp2689
Rp2690
g2414
F19.0
tp2691
a(I4880000
g1
(g5
S'R\xb8\x1e\x85\xeb\x914@'
p2692
tp2693
Rp2694
g1
(g5
S'\x14\xaeG\xe1z\x944@'
p2695
tp2696
Rp2697
F20.0
tp2698
a(I4890000
g1
(g5
S'\x8f\xc2\xf5(\\\x8f4@'
p2699
tp2700
Rp2701
g2697
F21.0
tp2702
a(I4900000
g1
(g5
S'H\xe1z\x14\xae\x874@'
p2703
tp2704
Rp2705
g2697
F20.0
tp2706
a(I4910000
g1
(g5
S'\x00\x00\x00\x00\x00\x804@'
p2707
tp2708
Rp2709
g2697
F21.0
tp2710
a(I4920000
g1
(g5
S'\xc3\xf5(\\\x8f\x824@'
p2711
tp2712
Rp2713
g2697
F21.0
tp2714
a(I4930000
g1
(g5
S'H\xe1z\x14\xae\x874@'
p2715
tp2716
Rp2717
g2697
F21.0
tp2718
a(I4940000
g1
(g5
S'\xcd\xcc\xcc\xcc\xcc\x8c4@'
p2719
tp2720
Rp2721
g2697
F21.0
tp2722
a(I4950000
g1
(g5
S'\n\xd7\xa3p=\x8a4@'
p2723
tp2724
Rp2725
g2697
F20.0
tp2726
a(I4960000
g1
(g5
S'\x85\xebQ\xb8\x1e\x854@'
p2727
tp2728
Rp2729
g2697
F19.0
tp2730
a(I4970000
g1
(g5
S'=\n\xd7\xa3p}4@'
p2731
tp2732
Rp2733
g2697
F21.0
tp2734
a(I4980000
g1
(g5
S'=\n\xd7\xa3p}4@'
p2735
tp2736
Rp2737
g2697
F20.0
tp2738
a(I4990000
g1
(g5
S'33333s4@'
p2739
tp2740
Rp2741
g2697
F20.0
tp2742
a(I5000000
g1
(g5
S'\xecQ\xb8\x1e\x85k4@'
p2743
tp2744
Rp2745
g2697
F21.0
tp2746
a(I5010000
g1
(g5
S'q=\n\xd7\xa3p4@'
p2747
tp2748
Rp2749
g2697
F21.0
tp2750
a(I5020000
g1
(g5
S'\xf6(\\\x8f\xc2u4@'
p2751
tp2752
Rp2753
g2697
F21.0
tp2754
a(I5030000
g1
(g5
S'\xecQ\xb8\x1e\x85k4@'
p2755
tp2756
Rp2757
g2697
F19.0
tp2758
a(I5040000
g1
(g5
S'q=\n\xd7\xa3p4@'
p2759
tp2760
Rp2761
g2697
F21.0
tp2762
a(I5050000
g1
(g5
S'\xf6(\\\x8f\xc2u4@'
p2763
tp2764
Rp2765
g2697
F21.0
tp2766
a(I5060000
g1
(g5
S'\xb8\x1e\x85\xebQx4@'
p2767
tp2768
Rp2769
g2697
F21.0
tp2770
a(I5070000
g1
(g5
S'\xc3\xf5(\\\x8f\x824@'
p2771
tp2772
Rp2773
g2697
F21.0
tp2774
a(I5080000
g1
(g5
S'\xcd\xcc\xcc\xcc\xcc\x8c4@'
p2775
tp2776
Rp2777
g2697
F21.0
tp2778
a(I5090000
g1
(g5
S'\n\xd7\xa3p=\x8a4@'
p2779
tp2780
Rp2781
g2697
F21.0
tp2782
a(I5100000
g1
(g5
S'H\xe1z\x14\xae\x874@'
p2783
tp2784
Rp2785
g2697
F21.0
tp2786
a(I5110000
g1
(g5
S'H\xe1z\x14\xae\x874@'
p2787
tp2788
Rp2789
g2697
F20.0
tp2790
a(I5120000
g1
(g5
S'\x85\xebQ\xb8\x1e\x854@'
p2791
tp2792
Rp2793
g2697
F20.0
tp2794
a(I5130000
g1
(g5
S'=\n\xd7\xa3p}4@'
p2795
tp2796
Rp2797
g2697
F20.0
tp2798
a(I5140000
g1
(g5
S'\x85\xebQ\xb8\x1e\x854@'
p2799
tp2800
Rp2801
g2697
F21.0
tp2802
a(I5150000
g1
(g5
S'\xc3\xf5(\\\x8f\x824@'
p2803
tp2804
Rp2805
g2697
F21.0
tp2806
a(I5160000
g1
(g5
S'=\n\xd7\xa3p}4@'
p2807
tp2808
Rp2809
g2697
F20.0
tp2810
a(I5170000
g1
(g5
S'H\xe1z\x14\xae\x874@'
p2811
tp2812
Rp2813
g2697
F21.0
tp2814
a(I5180000
g1
(g5
S'H\xe1z\x14\xae\x874@'
p2815
tp2816
Rp2817
g2697
F21.0
tp2818
a(I5190000
g1
(g5
S'\x00\x00\x00\x00\x00\x804@'
p2819
tp2820
Rp2821
g2697
F20.0
tp2822
a(I5200000
g1
(g5
S'\x85\xebQ\xb8\x1e\x854@'
p2823
tp2824
Rp2825
g2697
F21.0
tp2826
a(I5210000
g1
(g5
S'\x85\xebQ\xb8\x1e\x854@'
p2827
tp2828
Rp2829
g2697
F21.0
tp2830
a(I5220000
g1
(g5
S'\x00\x00\x00\x00\x00\x804@'
p2831
tp2832
Rp2833
g2697
F21.0
tp2834
a(I5230000
g1
(g5
S'\xb8\x1e\x85\xebQx4@'
p2835
tp2836
Rp2837
g2697
F20.0
tp2838
a(I5240000
g1
(g5
S'\xf6(\\\x8f\xc2u4@'
p2839
tp2840
Rp2841
g2697
F21.0
tp2842
a(I5250000
g1
(g5
S'33333s4@'
p2843
tp2844
Rp2845
g2697
F21.0
tp2846
a(I5260000
g1
(g5
S'\xaeG\xe1z\x14n4@'
p2847
tp2848
Rp2849
g2697
F21.0
tp2850
a(I5270000
g1
(g5
S'\xaeG\xe1z\x14n4@'
p2851
tp2852
Rp2853
g2697
F21.0
tp2854
a(I5280000
g1
(g5
S')\\\x8f\xc2\xf5h4@'
p2855
tp2856
Rp2857
g2697
F20.0
tp2858
a(I5290000
g1
(g5
S')\\\x8f\xc2\xf5h4@'
p2859
tp2860
Rp2861
g2697
F21.0
tp2862
a(I5300000
g1
(g5
S'\xf6(\\\x8f\xc2u4@'
p2863
tp2864
Rp2865
g2697
F20.0
tp2866
a(I5310000
g1
(g5
S'{\x14\xaeG\xe1z4@'
p2867
tp2868
Rp2869
g2697
F21.0
tp2870
a(I5320000
g1
(g5
S'\x00\x00\x00\x00\x00\x804@'
p2871
tp2872
Rp2873
g2697
F21.0
tp2874
a(I5330000
g1
(g5
S'H\xe1z\x14\xae\x874@'
p2875
tp2876
Rp2877
g2697
F21.0
tp2878
a(I5340000
g1
(g5
S'\xc3\xf5(\\\x8f\x824@'
p2879
tp2880
Rp2881
g2697
F21.0
tp2882
a(I5350000
g1
(g5
S'=\n\xd7\xa3p}4@'
p2883
tp2884
Rp2885
g2697
F21.0
tp2886
a(I5360000
g1
(g5
S'\x85\xebQ\xb8\x1e\x854@'
p2887
tp2888
Rp2889
g2697
F21.0
tp2890
a(I5370000
g1
(g5
S'\xcd\xcc\xcc\xcc\xcc\x8c4@'
p2891
tp2892
Rp2893
g2697
F21.0
tp2894
a(I5380000
g1
(g5
S'\n\xd7\xa3p=\x8a4@'
p2895
tp2896
Rp2897
g2697
F21.0
tp2898
a(I5390000
g1
(g5
S'\xcd\xcc\xcc\xcc\xcc\x8c4@'
p2899
tp2900
Rp2901
g2697
F21.0
tp2902
a(I5400000
g1
(g5
S'\xd7\xa3p=\n\x974@'
p2903
tp2904
Rp2905
g1
(g5
S'\xd7\xa3p=\n\x974@'
p2906
tp2907
Rp2908
F20.0
tp2909
a(I5410000
g1
(g5
S'\xd7\xa3p=\n\x974@'
p2910
tp2911
Rp2912
g2908
F21.0
tp2913
a(I5420000
g1
(g5
S'\xe1z\x14\xaeG\xa14@'
p2914
tp2915
Rp2916
g1
(g5
S'\xe1z\x14\xaeG\xa14@'
p2917
tp2918
Rp2919
F21.0
tp2920
a(I5430000
g1
(g5
S'\xecQ\xb8\x1e\x85\xab4@'
p2921
tp2922
Rp2923
g1
(g5
S'\xecQ\xb8\x1e\x85\xab4@'
p2924
tp2925
Rp2926
F21.0
tp2927
a(I5440000
g1
(g5
S'fffff\xa64@'
p2928
tp2929
Rp2930
g2926
F19.0
tp2931
a(I5450000
g1
(g5
S'\xe1z\x14\xaeG\xa14@'
p2932
tp2933
Rp2934
g2926
F21.0
tp2935
a(I5460000
g1
(g5
S'\x9a\x99\x99\x99\x99\x994@'
p2936
tp2937
Rp2938
g2926
F21.0
tp2939
a(I5470000
g1
(g5
S'\\\x8f\xc2\xf5(\x9c4@'
p2940
tp2941
Rp2942
g2926
F21.0
tp2943
a(I5480000
g1
(g5
S'\\\x8f\xc2\xf5(\x9c4@'
p2944
tp2945
Rp2946
g2926
F21.0
tp2947
a(I5490000
g1
(g5
S'\x14\xaeG\xe1z\x944@'
p2948
tp2949
Rp2950
g2926
F20.0
tp2951
a(I5500000
g1
(g5
S'\xd7\xa3p=\n\x974@'
p2952
tp2953
Rp2954
g2926
F21.0
tp2955
a(I5510000
g1
(g5
S'\x14\xaeG\xe1z\x944@'
p2956
tp2957
Rp2958
g2926
F21.0
tp2959
a(I5520000
g1
(g5
S'R\xb8\x1e\x85\xeb\x914@'
p2960
tp2961
Rp2962
g2926
F21.0
tp2963
a(I5530000
g1
(g5
S'\xcd\xcc\xcc\xcc\xcc\x8c4@'
p2964
tp2965
Rp2966
g2926
F21.0
tp2967
a(I5540000
g1
(g5
S'\xc3\xf5(\\\x8f\x824@'
p2968
tp2969
Rp2970
g2926
F20.0
tp2971
a(I5550000
g1
(g5
S'H\xe1z\x14\xae\x874@'
p2972
tp2973
Rp2974
g2926
F20.0
tp2975
a(I5560000
g1
(g5
S'\n\xd7\xa3p=\x8a4@'
p2976
tp2977
Rp2978
g2926
F21.0
tp2979
a(I5570000
g1
(g5
S'\x8f\xc2\xf5(\\\x8f4@'
p2980
tp2981
Rp2982
g2926
F20.0
tp2983
a(I5580000
g1
(g5
S'\xc3\xf5(\\\x8f\x824@'
p2984
tp2985
Rp2986
g2926
F20.0
tp2987
a(I5590000
g1
(g5
S'=\n\xd7\xa3p}4@'
p2988
tp2989
Rp2990
g2926
F20.0
tp2991
a(I5600000
g1
(g5
S'q=\n\xd7\xa3p4@'
p2992
tp2993
Rp2994
g2926
F19.0
tp2995
a(I5610000
g1
(g5
S'\xaeG\xe1z\x14n4@'
p2996
tp2997
Rp2998
g2926
F20.0
tp2999
a(I5620000
g1
(g5
S'=\n\xd7\xa3p}4@'
p3000
tp3001
Rp3002
g2926
F20.0
tp3003
a(I5630000
g1
(g5
S'=\n\xd7\xa3p}4@'
p3004
tp3005
Rp3006
g2926
F20.0
tp3007
a(I5640000
g1
(g5
S'\x00\x00\x00\x00\x00\x804@'
p3008
tp3009
Rp3010
g2926
F21.0
tp3011
a(I5650000
g1
(g5
S'\x00\x00\x00\x00\x00\x804@'
p3012
tp3013
Rp3014
g2926
F21.0
tp3015
a(I5660000
g1
(g5
S'\n\xd7\xa3p=\x8a4@'
p3016
tp3017
Rp3018
g2926
F21.0
tp3019
a(I5670000
g1
(g5
S'\x85\xebQ\xb8\x1e\x854@'
p3020
tp3021
Rp3022
g2926
F20.0
tp3023
a(I5680000
g1
(g5
S'\x85\xebQ\xb8\x1e\x854@'
p3024
tp3025
Rp3026
g2926
F19.0
tp3027
a(I5690000
g1
(g5
S'\n\xd7\xa3p=\x8a4@'
p3028
tp3029
Rp3030
g2926
F21.0
tp3031
a(I5700000
g1
(g5
S'\x85\xebQ\xb8\x1e\x854@'
p3032
tp3033
Rp3034
g2926
F20.0
tp3035
a(I5710000
g1
(g5
S'\n\xd7\xa3p=\x8a4@'
p3036
tp3037
Rp3038
g2926
F20.0
tp3039
a(I5720000
g1
(g5
S'\xcd\xcc\xcc\xcc\xcc\x8c4@'
p3040
tp3041
Rp3042
g2926
F20.0
tp3043
a(I5730000
g1
(g5
S'\x85\xebQ\xb8\x1e\x854@'
p3044
tp3045
Rp3046
g2926
F21.0
tp3047
a(I5740000
g1
(g5
S'\x85\xebQ\xb8\x1e\x854@'
p3048
tp3049
Rp3050
g2926
F21.0
tp3051
a(I5750000
g1
(g5
S'\xcd\xcc\xcc\xcc\xcc\x8c4@'
p3052
tp3053
Rp3054
g2926
F20.0
tp3055
a(I5760000
g1
(g5
S'\x14\xaeG\xe1z\x944@'
p3056
tp3057
Rp3058
g2926
F21.0
tp3059
a(I5770000
g1
(g5
S'\\\x8f\xc2\xf5(\x9c4@'
p3060
tp3061
Rp3062
g2926
F19.0
tp3063
a(I5780000
g1
(g5
S'\xe1z\x14\xaeG\xa14@'
p3064
tp3065
Rp3066
g2926
F21.0
tp3067
a(I5790000
g1
(g5
S')\\\x8f\xc2\xf5\xa84@'
p3068
tp3069
Rp3070
g2926
F21.0
tp3071
a(I5800000
g1
(g5
S')\\\x8f\xc2\xf5\xa84@'
p3072
tp3073
Rp3074
g2926
F21.0
tp3075
a(I5810000
g1
(g5
S')\\\x8f\xc2\xf5\xa84@'
p3076
tp3077
Rp3078
g2926
F20.0
tp3079
a(I5820000
g1
(g5
S'fffff\xa64@'
p3080
tp3081
Rp3082
g2926
F21.0
tp3083
a(I5830000
g1
(g5
S'\xa4p=\n\xd7\xa34@'
p3084
tp3085
Rp3086
g2926
F21.0
tp3087
a(I5840000
g1
(g5
S')\\\x8f\xc2\xf5\xa84@'
p3088
tp3089
Rp3090
g2926
F21.0
tp3091
a(I5850000
g1
(g5
S'\xaeG\xe1z\x14\xae4@'
p3092
tp3093
Rp3094
g1
(g5
S'\xaeG\xe1z\x14\xae4@'
p3095
tp3096
Rp3097
F20.0
tp3098
a(I5860000
g1
(g5
S'\xaeG\xe1z\x14\xae4@'
p3099
tp3100
Rp3101
g1
(g5
S'q=\n\xd7\xa3\xb04@'
p3102
tp3103
Rp3104
F21.0
tp3105
a(I5870000
g1
(g5
S'\xb8\x1e\x85\xebQ\xb84@'
p3106
tp3107
Rp3108
g1
(g5
S'\xb8\x1e\x85\xebQ\xb84@'
p3109
tp3110
Rp3111
F21.0
tp3112
a(I5880000
g1
(g5
S'33333\xb34@'
p3113
tp3114
Rp3115
g3111
F21.0
tp3116
a(I5890000
g1
(g5
S'33333\xb34@'
p3117
tp3118
Rp3119
g3111
F21.0
tp3120
a(I5900000
g1
(g5
S'\xf6(\\\x8f\xc2\xb54@'
p3121
tp3122
Rp3123
g3111
F21.0
tp3124
a(I5910000
g1
(g5
S'\xf6(\\\x8f\xc2\xb54@'
p3125
tp3126
Rp3127
g3111
F21.0
tp3128
a(I5920000
g1
(g5
S'{\x14\xaeG\xe1\xba4@'
p3129
tp3130
Rp3131
g1
(g5
S'{\x14\xaeG\xe1\xba4@'
p3132
tp3133
Rp3134
F21.0
tp3135
a(I5930000
g1
(g5
S'q=\n\xd7\xa3\xb04@'
p3136
tp3137
Rp3138
g3134
F21.0
tp3139
a(I5940000
g1
(g5
S'33333\xb34@'
p3140
tp3141
Rp3142
g3134
F20.0
tp3143
a(I5950000
g1
(g5
S'\xaeG\xe1z\x14\xae4@'
p3144
tp3145
Rp3146
g3134
F21.0
tp3147
a(I5960000
g1
(g5
S'\xaeG\xe1z\x14\xae4@'
p3148
tp3149
Rp3150
g3134
F21.0
tp3151
a(I5970000
g1
(g5
S'33333\xb34@'
p3152
tp3153
Rp3154
g3134
F21.0
tp3155
a(I5980000
g1
(g5
S'fffff\xa64@'
p3156
tp3157
Rp3158
g3134
F21.0
tp3159
a(I5990000
g1
(g5
S'fffff\xa64@'
p3160
tp3161
Rp3162
g3134
F21.0
tp3163
a(I6000000
g1
(g5
S'\xa4p=\n\xd7\xa34@'
p3164
tp3165
Rp3166
g3134
F20.0
tp3167
a(I6010000
g1
(g5
S'\xa4p=\n\xd7\xa34@'
p3168
tp3169
Rp3170
g3134
F21.0
tp3171
a(I6020000
g1
(g5
S')\\\x8f\xc2\xf5\xa84@'
p3172
tp3173
Rp3174
g3134
F21.0
tp3175
a(I6030000
g1
(g5
S')\\\x8f\xc2\xf5\xa84@'
p3176
tp3177
Rp3178
g3134
F21.0
tp3179
a(I6040000
g1
(g5
S'\xecQ\xb8\x1e\x85\xab4@'
p3180
tp3181
Rp3182
g3134
F21.0
tp3183
a(I6050000
g1
(g5
S'q=\n\xd7\xa3\xb04@'
p3184
tp3185
Rp3186
g3134
F21.0
tp3187
a(I6060000
g1
(g5
S'33333\xb34@'
p3188
tp3189
Rp3190
g3134
F19.0
tp3191
a(I6070000
g1
(g5
S'\xf6(\\\x8f\xc2\xb54@'
p3192
tp3193
Rp3194
g3134
F20.0
tp3195
a(I6080000
g1
(g5
S'\xf6(\\\x8f\xc2\xb54@'
p3196
tp3197
Rp3198
g3134
F21.0
tp3199
a(I6090000
g1
(g5
S'33333\xb34@'
p3200
tp3201
Rp3202
g3134
F21.0
tp3203
a(I6100000
g1
(g5
S'q=\n\xd7\xa3\xb04@'
p3204
tp3205
Rp3206
g3134
F21.0
tp3207
a(I6110000
g1
(g5
S'fffff\xa64@'
p3208
tp3209
Rp3210
g3134
F21.0
tp3211
a(I6120000
g1
(g5
S'\xecQ\xb8\x1e\x85\xab4@'
p3212
tp3213
Rp3214
g3134
F21.0
tp3215
a(I6130000
g1
(g5
S'\xaeG\xe1z\x14\xae4@'
p3216
tp3217
Rp3218
g3134
F21.0
tp3219
a(I6140000
g1
(g5
S')\\\x8f\xc2\xf5\xa84@'
p3220
tp3221
Rp3222
g3134
F21.0
tp3223
a(I6150000
g1
(g5
S'33333\xb34@'
p3224
tp3225
Rp3226
g3134
F20.0
tp3227
a(I6160000
g1
(g5
S'\xb8\x1e\x85\xebQ\xb84@'
p3228
tp3229
Rp3230
g3134
F21.0
tp3231
a(I6170000
g1
(g5
S'=\n\xd7\xa3p\xbd4@'
p3232
tp3233
Rp3234
g1
(g5
S'=\n\xd7\xa3p\xbd4@'
p3235
tp3236
Rp3237
F21.0
tp3238
a(I6180000
g1
(g5
S'{\x14\xaeG\xe1\xba4@'
p3239
tp3240
Rp3241
g3237
F21.0
tp3242
a(I6190000
g1
(g5
S'q=\n\xd7\xa3\xb04@'
p3243
tp3244
Rp3245
g3237
F20.0
tp3246
a(I6200000
g1
(g5
S'\xf6(\\\x8f\xc2\xb54@'
p3247
tp3248
Rp3249
g3237
F21.0
tp3250
a(I6210000
g1
(g5
S'\xf6(\\\x8f\xc2\xb54@'
p3251
tp3252
Rp3253
g3237
F20.0
tp3254
a(I6220000
g1
(g5
S'q=\n\xd7\xa3\xb04@'
p3255
tp3256
Rp3257
g3237
F20.0
tp3258
a(I6230000
g1
(g5
S')\\\x8f\xc2\xf5\xa84@'
p3259
tp3260
Rp3261
g3237
F21.0
tp3262
a(I6240000
g1
(g5
S')\\\x8f\xc2\xf5\xa84@'
p3263
tp3264
Rp3265
g3237
F21.0
tp3266
a(I6250000
g1
(g5
S'fffff\xa64@'
p3267
tp3268
Rp3269
g3237
F21.0
tp3270
a(I6260000
g1
(g5
S')\\\x8f\xc2\xf5\xa84@'
p3271
tp3272
Rp3273
g3237
F21.0
tp3274
a(I6270000
g1
(g5
S'q=\n\xd7\xa3\xb04@'
p3275
tp3276
Rp3277
g3237
F21.0
tp3278
a(I6280000
g1
(g5
S'\xf6(\\\x8f\xc2\xb54@'
p3279
tp3280
Rp3281
g3237
F21.0
tp3282
a(I6290000
g1
(g5
S'33333\xb34@'
p3283
tp3284
Rp3285
g3237
F20.0
tp3286
a(I6300000
g1
(g5
S'33333\xb34@'
p3287
tp3288
Rp3289
g3237
F21.0
tp3290
a(I6310000
g1
(g5
S'{\x14\xaeG\xe1\xba4@'
p3291
tp3292
Rp3293
g3237
F21.0
tp3294
a(I6320000
g1
(g5
S'{\x14\xaeG\xe1\xba4@'
p3295
tp3296
Rp3297
g3237
F21.0
tp3298
a(I6330000
g1
(g5
S'\xb8\x1e\x85\xebQ\xb84@'
p3299
tp3300
Rp3301
g3237
F21.0
tp3302
a(I6340000
g1
(g5
S'{\x14\xaeG\xe1\xba4@'
p3303
tp3304
Rp3305
g3237
F21.0
tp3306
a(I6350000
g1
(g5
S'\xb8\x1e\x85\xebQ\xb84@'
p3307
tp3308
Rp3309
g3237
F20.0
tp3310
a(I6360000
g1
(g5
S'{\x14\xaeG\xe1\xba4@'
p3311
tp3312
Rp3313
g3237
F21.0
tp3314
a(I6370000
g1
(g5
S'33333\xb34@'
p3315
tp3316
Rp3317
g3237
F20.0
tp3318
a(I6380000
g1
(g5
S'\xf6(\\\x8f\xc2\xb54@'
p3319
tp3320
Rp3321
g3237
F21.0
tp3322
a(I6390000
g1
(g5
S'=\n\xd7\xa3p\xbd4@'
p3323
tp3324
Rp3325
g3237
F21.0
tp3326
a(I6400000
g1
(g5
S'\x00\x00\x00\x00\x00\xc04@'
p3327
tp3328
Rp3329
g1
(g5
S'\xc3\xf5(\\\x8f\xc24@'
p3330
tp3331
Rp3332
F21.0
tp3333
a(I6410000
g1
(g5
S'\xb8\x1e\x85\xebQ\xb84@'
p3334
tp3335
Rp3336
g3332
F20.0
tp3337
a(I6420000
g1
(g5
S'\xf6(\\\x8f\xc2\xb54@'
p3338
tp3339
Rp3340
g3332
F21.0
tp3341
a(I6430000
g1
(g5
S'\xf6(\\\x8f\xc2\xb54@'
p3342
tp3343
Rp3344
g3332
F21.0
tp3345
a(I6440000
g1
(g5
S'q=\n\xd7\xa3\xb04@'
p3346
tp3347
Rp3348
g3332
F20.0
tp3349
a(I6450000
g1
(g5
S'q=\n\xd7\xa3\xb04@'
p3350
tp3351
Rp3352
g3332
F20.0
tp3353
a(I6460000
g1
(g5
S'q=\n\xd7\xa3\xb04@'
p3354
tp3355
Rp3356
g3332
F20.0
tp3357
a(I6470000
g1
(g5
S'\xaeG\xe1z\x14\xae4@'
p3358
tp3359
Rp3360
g3332
F20.0
tp3361
a(I6480000
g1
(g5
S'\xecQ\xb8\x1e\x85\xab4@'
p3362
tp3363
Rp3364
g3332
F21.0
tp3365
a(I6490000
g1
(g5
S'q=\n\xd7\xa3\xb04@'
p3366
tp3367
Rp3368
g3332
F21.0
tp3369
a(I6500000
g1
(g5
S'33333\xb34@'
p3370
tp3371
Rp3372
g3332
F21.0
tp3373
a(I6510000
g1
(g5
S')\\\x8f\xc2\xf5\xa84@'
p3374
tp3375
Rp3376
g3332
F19.0
tp3377
a(I6520000
g1
(g5
S')\\\x8f\xc2\xf5\xa84@'
p3378
tp3379
Rp3380
g3332
F21.0
tp3381
a(I6530000
g1
(g5
S'\xaeG\xe1z\x14\xae4@'
p3382
tp3383
Rp3384
g3332
F21.0
tp3385
a(I6540000
g1
(g5
S'\xecQ\xb8\x1e\x85\xab4@'
p3386
tp3387
Rp3388
g3332
F20.0
tp3389
a(I6550000
g1
(g5
S')\\\x8f\xc2\xf5\xa84@'
p3390
tp3391
Rp3392
g3332
F20.0
tp3393
a(I6560000
g1
(g5
S'\xecQ\xb8\x1e\x85\xab4@'
p3394
tp3395
Rp3396
g3332
F21.0
tp3397
a(I6570000
g1
(g5
S'33333\xb34@'
p3398
tp3399
Rp3400
g3332
F21.0
tp3401
a(I6580000
g1
(g5
S'{\x14\xaeG\xe1\xba4@'
p3402
tp3403
Rp3404
g3332
F20.0
tp3405
a(I6590000
g1
(g5
S'{\x14\xaeG\xe1\xba4@'
p3406
tp3407
Rp3408
g3332
F21.0
tp3409
a(I6600000
g1
(g5
S'{\x14\xaeG\xe1\xba4@'
p3410
tp3411
Rp3412
g3332
F21.0
tp3413
a(I6610000
g1
(g5
S'\x00\x00\x00\x00\x00\xc04@'
p3414
tp3415
Rp3416
g3332
F21.0
tp3417
a(I6620000
g1
(g5
S'\xc3\xf5(\\\x8f\xc24@'
p3418
tp3419
Rp3420
g3332
F21.0
tp3421
a(I6630000
g1
(g5
S'{\x14\xaeG\xe1\xba4@'
p3422
tp3423
Rp3424
g3332
F21.0
tp3425
a(I6640000
g1
(g5
S'\xb8\x1e\x85\xebQ\xb84@'
p3426
tp3427
Rp3428
g3332
F21.0
tp3429
a(I6650000
g1
(g5
S'{\x14\xaeG\xe1\xba4@'
p3430
tp3431
Rp3432
g3332
F21.0
tp3433
a(I6660000
g1
(g5
S'\xb8\x1e\x85\xebQ\xb84@'
p3434
tp3435
Rp3436
g3332
F21.0
tp3437
a(I6670000
g1
(g5
S'33333\xb34@'
p3438
tp3439
Rp3440
g3332
F20.0
tp3441
a(I6680000
g1
(g5
S'\xb8\x1e\x85\xebQ\xb84@'
p3442
tp3443
Rp3444
g3332
F21.0
tp3445
a(I6690000
g1
(g5
S'{\x14\xaeG\xe1\xba4@'
p3446
tp3447
Rp3448
g3332
F20.0
tp3449
a(I6700000
g1
(g5
S'{\x14\xaeG\xe1\xba4@'
p3450
tp3451
Rp3452
g3332
F21.0
tp3453
a(I6710000
g1
(g5
S'=\n\xd7\xa3p\xbd4@'
p3454
tp3455
Rp3456
g3332
F21.0
tp3457
a(I6720000
g1
(g5
S'\x00\x00\x00\x00\x00\xc04@'
p3458
tp3459
Rp3460
g3332
F21.0
tp3461
a(I6730000
g1
(g5
S'=\n\xd7\xa3p\xbd4@'
p3462
tp3463
Rp3464
g3332
F21.0
tp3465
a(I6740000
g1
(g5
S'\x00\x00\x00\x00\x00\xc04@'
p3466
tp3467
Rp3468
g3332
F21.0
tp3469
a(I6750000
g1
(g5
S'\x00\x00\x00\x00\x00\xc04@'
p3470
tp3471
Rp3472
g3332
F21.0
tp3473
a(I6760000
g1
(g5
S'=\n\xd7\xa3p\xbd4@'
p3474
tp3475
Rp3476
g3332
F20.0
tp3477
a(I6770000
g1
(g5
S'\x00\x00\x00\x00\x00\xc04@'
p3478
tp3479
Rp3480
g3332
F21.0
tp3481
a(I6780000
g1
(g5
S'\x85\xebQ\xb8\x1e\xc54@'
p3482
tp3483
Rp3484
g1
(g5
S'\x85\xebQ\xb8\x1e\xc54@'
p3485
tp3486
Rp3487
F21.0
tp3488
a(I6790000
g1
(g5
S'\n\xd7\xa3p=\xca4@'
p3489
tp3490
Rp3491
g1
(g5
S'\n\xd7\xa3p=\xca4@'
p3492
tp3493
Rp3494
F21.0
tp3495
a(I6800000
g1
(g5
S'R\xb8\x1e\x85\xeb\xd14@'
p3496
tp3497
Rp3498
g1
(g5
S'R\xb8\x1e\x85\xeb\xd14@'
p3499
tp3500
Rp3501
F21.0
tp3502
a(I6810000
g1
(g5
S'\x14\xaeG\xe1z\xd44@'
p3503
tp3504
Rp3505
g1
(g5
S'\x14\xaeG\xe1z\xd44@'
p3506
tp3507
Rp3508
F21.0
tp3509
a(I6820000
g1
(g5
S'R\xb8\x1e\x85\xeb\xd14@'
p3510
tp3511
Rp3512
g3508
F21.0
tp3513
a(I6830000
g1
(g5
S'\x8f\xc2\xf5(\\\xcf4@'
p3514
tp3515
Rp3516
g3508
F20.0
tp3517
a(I6840000
g1
(g5
S'\x8f\xc2\xf5(\\\xcf4@'
p3518
tp3519
Rp3520
g3508
F21.0
tp3521
a(I6850000
g1
(g5
S'\x14\xaeG\xe1z\xd44@'
p3522
tp3523
Rp3524
g1
(g5
S'\xd7\xa3p=\n\xd74@'
p3525
tp3526
Rp3527
F21.0
tp3528
a(I6860000
g1
(g5
S'\xd7\xa3p=\n\xd74@'
p3529
tp3530
Rp3531
g3527
F21.0
tp3532
a(I6870000
g1
(g5
S'\x14\xaeG\xe1z\xd44@'
p3533
tp3534
Rp3535
g1
(g5
S'\x9a\x99\x99\x99\x99\xd94@'
p3536
tp3537
Rp3538
F21.0
tp3539
a(I6880000
g1
(g5
S'\x14\xaeG\xe1z\xd44@'
p3540
tp3541
Rp3542
g3538
F20.0
tp3543
a(I6890000
g1
(g5
S'\x14\xaeG\xe1z\xd44@'
p3544
tp3545
Rp3546
g3538
F21.0
tp3547
a(I6900000
g1
(g5
S'\x14\xaeG\xe1z\xd44@'
p3548
tp3549
Rp3550
g3538
F21.0
tp3551
a(I6910000
g1
(g5
S'R\xb8\x1e\x85\xeb\xd14@'
p3552
tp3553
Rp3554
g3538
F21.0
tp3555
a(I6920000
g1
(g5
S'\x8f\xc2\xf5(\\\xcf4@'
p3556
tp3557
Rp3558
g3538
F20.0
tp3559
a(I6930000
g1
(g5
S'\xcd\xcc\xcc\xcc\xcc\xcc4@'
p3560
tp3561
Rp3562
g3538
F21.0
tp3563
a(I6940000
g1
(g5
S'H\xe1z\x14\xae\xc74@'
p3564
tp3565
Rp3566
g3538
F21.0
tp3567
a(I6950000
g1
(g5
S'\xc3\xf5(\\\x8f\xc24@'
p3568
tp3569
Rp3570
g3538
F21.0
tp3571
a(I6960000
g1
(g5
S'\xc3\xf5(\\\x8f\xc24@'
p3572
tp3573
Rp3574
g3538
F20.0
tp3575
a(I6970000
g1
(g5
S'=\n\xd7\xa3p\xbd4@'
p3576
tp3577
Rp3578
g3538
F20.0
tp3579
a(I6980000
g1
(g5
S'\xb8\x1e\x85\xebQ\xb84@'
p3580
tp3581
Rp3582
g3538
F20.0
tp3583
a(I6990000
g1
(g5
S'q=\n\xd7\xa3\xb04@'
p3584
tp3585
Rp3586
g3538
F21.0
tp3587
a(I7000000
g1
(g5
S'33333\xb34@'
p3588
tp3589
Rp3590
g3538
F21.0
tp3591
a(I7010000
g1
(g5
S'\xb8\x1e\x85\xebQ\xb84@'
p3592
tp3593
Rp3594
g3538
F21.0
tp3595
a(I7020000
g1
(g5
S'\xf6(\\\x8f\xc2\xb54@'
p3596
tp3597
Rp3598
g3538
F21.0
tp3599
a(I7030000
g1
(g5
S'q=\n\xd7\xa3\xb04@'
p3600
tp3601
Rp3602
g3538
F20.0
tp3603
a(I7040000
g1
(g5
S'q=\n\xd7\xa3\xb04@'
p3604
tp3605
Rp3606
g3538
F20.0
tp3607
a(I7050000
g1
(g5
S'q=\n\xd7\xa3\xb04@'
p3608
tp3609
Rp3610
g3538
F21.0
tp3611
a(I7060000
g1
(g5
S'\xf6(\\\x8f\xc2\xb54@'
p3612
tp3613
Rp3614
g3538
F21.0
tp3615
a(I7070000
g1
(g5
S'q=\n\xd7\xa3\xb04@'
p3616
tp3617
Rp3618
g3538
F21.0
tp3619
a(I7080000
g1
(g5
S'\xaeG\xe1z\x14\xae4@'
p3620
tp3621
Rp3622
g3538
F21.0
tp3623
a(I7090000
g1
(g5
S')\\\x8f\xc2\xf5\xa84@'
p3624
tp3625
Rp3626
g3538
F18.0
tp3627
a(I7100000
g1
(g5
S')\\\x8f\xc2\xf5\xa84@'
p3628
tp3629
Rp3630
g3538
F21.0
tp3631
a(I7110000
g1
(g5
S'\xaeG\xe1z\x14\xae4@'
p3632
tp3633
Rp3634
g3538
F20.0
tp3635
a(I7120000
g1
(g5
S'\xecQ\xb8\x1e\x85\xab4@'
p3636
tp3637
Rp3638
g3538
F21.0
tp3639
a(I7130000
g1
(g5
S'\xaeG\xe1z\x14\xae4@'
p3640
tp3641
Rp3642
g3538
F21.0
tp3643
a(I7140000
g1
(g5
S'q=\n\xd7\xa3\xb04@'
p3644
tp3645
Rp3646
g3538
F20.0
tp3647
a(I7150000
g1
(g5
S'\xf6(\\\x8f\xc2\xb54@'
p3648
tp3649
Rp3650
g3538
F21.0
tp3651
a(I7160000
g1
(g5
S'\xb8\x1e\x85\xebQ\xb84@'
p3652
tp3653
Rp3654
g3538
F21.0
tp3655
a(I7170000
g1
(g5
S'33333\xb34@'
p3656
tp3657
Rp3658
g3538
F19.0
tp3659
a(I7180000
g1
(g5
S'\xecQ\xb8\x1e\x85\xab4@'
p3660
tp3661
Rp3662
g3538
F20.0
tp3663
a(I7190000
g1
(g5
S'q=\n\xd7\xa3\xb04@'
p3664
tp3665
Rp3666
g3538
F21.0
tp3667
a(I7200000
g1
(g5
S'\xb8\x1e\x85\xebQ\xb84@'
p3668
tp3669
Rp3670
g3538
F21.0
tp3671
a(I7210000
g1
(g5
S'\xf6(\\\x8f\xc2\xb54@'
p3672
tp3673
Rp3674
g3538
F21.0
tp3675
a(I7220000
g1
(g5
S'\xb8\x1e\x85\xebQ\xb84@'
p3676
tp3677
Rp3678
g3538
F21.0
tp3679
a(I7230000
g1
(g5
S'\xaeG\xe1z\x14\xae4@'
p3680
tp3681
Rp3682
g3538
F19.0
tp3683
a(I7240000
g1
(g5
S'33333\xb34@'
p3684
tp3685
Rp3686
g3538
F21.0
tp3687
a(I7250000
g1
(g5
S'33333\xb34@'
p3688
tp3689
Rp3690
g3538
F21.0
tp3691
a(I7260000
g1
(g5
S'=\n\xd7\xa3p\xbd4@'
p3692
tp3693
Rp3694
g3538
F21.0
tp3695
a(I7270000
g1
(g5
S'{\x14\xaeG\xe1\xba4@'
p3696
tp3697
Rp3698
g3538
F19.0
tp3699
a(I7280000
g1
(g5
S'\xc3\xf5(\\\x8f\xc24@'
p3700
tp3701
Rp3702
g3538
F21.0
tp3703
a(I7290000
g1
(g5
S'\xc3\xf5(\\\x8f\xc24@'
p3704
tp3705
Rp3706
g3538
F21.0
tp3707
a(I7300000
g1
(g5
S'\xc3\xf5(\\\x8f\xc24@'
p3708
tp3709
Rp3710
g3538
F21.0
tp3711
a(I7310000
g1
(g5
S'=\n\xd7\xa3p\xbd4@'
p3712
tp3713
Rp3714
g3538
F21.0
tp3715
a(I7320000
g1
(g5
S'\x00\x00\x00\x00\x00\xc04@'
p3716
tp3717
Rp3718
g3538
F21.0
tp3719
a(I7330000
g1
(g5
S'\x00\x00\x00\x00\x00\xc04@'
p3720
tp3721
Rp3722
g3538
F20.0
tp3723
a(I7340000
g1
(g5
S'\x85\xebQ\xb8\x1e\xc54@'
p3724
tp3725
Rp3726
g3538
F20.0
tp3727
a(I7350000
g1
(g5
S'\n\xd7\xa3p=\xca4@'
p3728
tp3729
Rp3730
g3538
F21.0
tp3731
a(I7360000
g1
(g5
S'\n\xd7\xa3p=\xca4@'
p3732
tp3733
Rp3734
g3538
F21.0
tp3735
a(I7370000
g1
(g5
S'\xcd\xcc\xcc\xcc\xcc\xcc4@'
p3736
tp3737
Rp3738
g3538
F21.0
tp3739
a(I7380000
g1
(g5
S'\xcd\xcc\xcc\xcc\xcc\xcc4@'
p3740
tp3741
Rp3742
g3538
F21.0
tp3743
a(I7390000
g1
(g5
S'\x8f\xc2\xf5(\\\xcf4@'
p3744
tp3745
Rp3746
g3538
F21.0
tp3747
a(I7400000
g1
(g5
S'R\xb8\x1e\x85\xeb\xd14@'
p3748
tp3749
Rp3750
g3538
F21.0
tp3751
a(I7410000
g1
(g5
S'\x8f\xc2\xf5(\\\xcf4@'
p3752
tp3753
Rp3754
g3538
F21.0
tp3755
a(I7420000
g1
(g5
S'\x8f\xc2\xf5(\\\xcf4@'
p3756
tp3757
Rp3758
g3538
F21.0
tp3759
a(I7430000
g1
(g5
S'\n\xd7\xa3p=\xca4@'
p3760
tp3761
Rp3762
g3538
F21.0
tp3763
a(I7440000
g1
(g5
S'\xcd\xcc\xcc\xcc\xcc\xcc4@'
p3764
tp3765
Rp3766
g3538
F21.0
tp3767
a(I7450000
g1
(g5
S'\x85\xebQ\xb8\x1e\xc54@'
p3768
tp3769
Rp3770
g3538
F21.0
tp3771
a(I7460000
g1
(g5
S'H\xe1z\x14\xae\xc74@'
p3772
tp3773
Rp3774
g3538
F21.0
tp3775
a(I7470000
g1
(g5
S'\n\xd7\xa3p=\xca4@'
p3776
tp3777
Rp3778
g3538
F21.0
tp3779
a(I7476547
g1
(g5
S'\xcd\xcc\xcc\xcc\xcc\xcc4@'
p3780
tp3781
Rp3782
g3538
F21.0
tp3783
a.(lp0
F-21.0
aF-21.0
aF-21.0
aF-21.0
aF-20.0
aF-21.0
aF-19.0
aF-21.0
aF-21.0
aF-21.0
aF-21.0
aF-19.0
aF-20.0
aF-21.0
aF-21.0
aF-21.0
aF-21.0
aF-21.0
aF-18.0
aF-20.0
aF-19.0
aF-20.0
aF-18.0
aF-21.0
aF-21.0
aF-21.0
aF-21.0
aF-21.0
aF-19.0
aF-21.0
aF-21.0
aF-21.0
aF-21.0
aF-20.0
aF-21.0
aF-20.0
aF-20.0
aF-20.0
aF-20.0
aF-19.0
aF-21.0
aF-19.0
aF-20.0
aF-20.0
aF-20.0
aF-21.0
aF-21.0
aF-20.0
aF-21.0
aF-21.0
aF-21.0
aF-20.0
aF-20.0
aF-20.0
aF-19.0
aF-18.0
aF-20.0
aF-18.0
aF-21.0
aF-21.0
aF-20.0
aF-21.0
aF-19.0
aF-19.0
aF-21.0
aF-21.0
aF-21.0
aF-21.0
aF-21.0
aF-19.0
aF-21.0
aF-21.0
aF-21.0
aF-21.0
aF-20.0
aF-21.0
aF-21.0
aF-21.0
aF-21.0
aF-21.0
aF-19.0
aF-21.0
aF-20.0
aF-19.0
aF-21.0
aF-20.0
aF-18.0
aF-19.0
aF-20.0
aF-20.0
aF-21.0
aF-20.0
aF-21.0
aF-21.0
aF-20.0
aF-19.0
aF-20.0
aF-21.0
aF-20.0
aF-21.0
aF-19.0
aF-20.0
aF-20.0
aF-20.0
aF-20.0
aF-21.0
aF-21.0
aF-20.0
aF-21.0
aF-20.0
aF-21.0
aF-20.0
aF-21.0
aF-21.0
aF-19.0
aF-20.0
aF-20.0
aF-21.0
aF-20.0
aF-19.0
aF-21.0
aF-21.0
aF-20.0
aF-21.0
aF-20.0
aF-21.0
aF-21.0
aF-19.0
aF-19.0
aF-21.0
aF-20.0
aF-19.0
aF-21.0
aF-21.0
aF-20.0
aF-20.0
aF-21.0
aF-20.0
aF-19.0
aF-19.0
aF-20.0
aF-21.0
aF-21.0
aF-21.0
aF-20.0
aF-20.0
aF-21.0
aF-21.0
aF-21.0
aF-21.0
aF-20.0
aF-21.0
aF-19.0
aF-20.0
aF-20.0
aF-20.0
aF-20.0
aF-19.0
aF-20.0
aF-21.0
aF-21.0
aF-21.0
aF-21.0
aF-21.0
aF-20.0
aF-21.0
aF-21.0
aF-21.0
aF-20.0
aF-20.0
aF-20.0
aF-17.0
aF-21.0
aF-20.0
aF-21.0
aF-20.0
aF-20.0
aF-21.0
aF-20.0
aF-21.0
aF-20.0
aF-21.0
aF-20.0
aF-20.0
aF-20.0
aF-21.0
aF-20.0
aF-21.0
aF-21.0
aF-19.0
aF-19.0
aF-21.0
aF-19.0
aF-21.0
aF-20.0
aF-21.0
aF-21.0
aF-21.0
aF-21.0
aF-21.0
aF-20.0
aF-21.0
aF-21.0
aF-21.0
aF-20.0
aF-20.0
aF-20.0
aF-21.0
aF-20.0
aF-20.0
aF-20.0
aF-21.0
aF-20.0
aF-21.0
aF-20.0
aF-20.0
aF-20.0
aF-21.0
aF-21.0
aF-21.0
aF-20.0
aF-21.0
aF-20.0
aF-20.0
aF-19.0
aF-21.0
aF-19.0
aF-21.0
aF-21.0
aF-21.0
aF-17.0
aF-21.0
aF-21.0
aF-21.0
aF-20.0
aF-21.0
aF-21.0
aF-21.0
aF-21.0
aF-21.0
aF-18.0
aF-20.0
aF-21.0
aF-18.0
aF-20.0
aF-20.0
aF-20.0
aF-17.0
aF-20.0
aF-20.0
aF-21.0
aF-21.0
aF-20.0
aF-20.0
aF-21.0
aF-21.0
aF-20.0
aF-21.0
aF-21.0
aF-20.0
aF-21.0
aF-21.0
aF-21.0
aF-19.0
aF-19.0
aF-21.0
aF-20.0
aF-18.0
aF-20.0
aF-21.0
aF-21.0
aF-18.0
aF-20.0
aF-21.0
aF-19.0
aF-20.0
aF-20.0
aF-21.0
aF-20.0
aF-18.0
aF-19.0
aF-21.0
aF-20.0
aF-20.0
aF-21.0
aF-21.0
aF-21.0
aF-21.0
aF-20.0
aF-20.0
aF-20.0
aF-21.0
aF-21.0
aF-21.0
aF-20.0
aF-21.0
aF-21.0
aF-20.0
aF-20.0
aF-20.0
aF-19.0
aF-21.0
aF-19.0
aF-20.0
aF-21.0
aF-21.0
aF-18.0
aF-20.0
aF-21.0
aF-20.0
aF-20.0
aF-20.0
aF-20.0
aF-21.0
aF-21.0
aF-19.0
aF-20.0
aF-21.0
aF-20.0
aF-21.0
aF-17.0
aF-21.0
aF-21.0
aF-21.0
aF-20.0
aF-21.0
aF-21.0
aF-21.0
aF-19.0
aF-21.0
aF-20.0
aF-21.0
aF-21.0
aF-20.0
aF-21.0
aF-20.0
aF-21.0
aF-19.0
aF-21.0
aF-19.0
aF-21.0
aF-20.0
aF-20.0
aF-19.0
aF-21.0
aF-21.0
aF-20.0
aF-20.0
aF-20.0
aF-20.0
aF-21.0
aF-21.0
aF-21.0
aF-20.0
aF-20.0
aF-19.0
aF-21.0
aF-20.0
aF-20.0
aF-20.0
aF-20.0
aF-20.0
aF-20.0
aF-21.0
aF-20.0
aF-21.0
aF-20.0
aF-21.0
aF-20.0
aF-20.0
aF-19.0
aF-21.0
aF-21.0
aF-18.0
aF-21.0
aF-19.0
aF-18.0
aF-18.0
aF-19.0
aF-19.0
aF-20.0
aF-19.0
aF-19.0
aF-18.0
aF-18.0
aF-20.0
aF-21.0
aF-21.0
aF-21.0
aF-18.0
aF-19.0
aF-19.0
aF-18.0
aF-21.0
aF-21.0
aF-21.0
aF-21.0
aF-19.0
aF-20.0
aF-21.0
aF-21.0
aF-19.0
aF-21.0
aF-20.0
aF-19.0
aF-21.0
aF-19.0
aF-20.0
aF-18.0
aF-19.0
aF-19.0
aF-20.0
aF-20.0
aF-20.0
aF-19.0
aF-21.0
aF-16.0
aF-18.0
aF-18.0
aF-20.0
aF-20.0
aF-18.0
aF-21.0
aF-21.0
aF-17.0
aF-18.0
aF-19.0
aF-15.0
aF-18.0
aF-18.0
aF-18.0
aF-21.0
aF-18.0
aF-20.0
aF-20.0
aF-19.0
aF-19.0
aF-21.0
aF-20.0
aF-20.0
aF-17.0
aF-15.0
aF-16.0
aF-16.0
aF-16.0
aF-21.0
aF-20.0
aF-18.0
aF-18.0
aF-17.0
aF-21.0
aF-17.0
aF-17.0
aF-18.0
aF-16.0
aF-16.0
aF-19.0
aF-20.0
aF-21.0
aF-18.0
aF-19.0
aF-16.0
aF-19.0
aF-19.0
aF-20.0
aF-16.0
aF-18.0
aF-18.0
aF-17.0
aF-13.0
aF-20.0
aF-19.0
aF-18.0
aF-17.0
aF-17.0
aF-18.0
aF-17.0
aF-18.0
aF-19.0
aF-19.0
aF-13.0
aF-20.0
aF-18.0
aF-19.0
aF-18.0
aF-18.0
aF-17.0
aF-13.0
aF-18.0
aF-16.0
aF-17.0
aF-18.0
aF-20.0
aF-17.0
aF-18.0
aF-20.0
aF-21.0
aF-18.0
aF-13.0
aF-16.0
aF-19.0
aF-20.0
aF-15.0
aF-14.0
aF-16.0
aF-16.0
aF-17.0
aF-18.0
aF-17.0
aF-19.0
aF-18.0
aF-19.0
aF-18.0
aF-17.0
aF-18.0
aF-18.0
aF-21.0
aF-18.0
aF-16.0
aF-17.0
aF-19.0
aF-17.0
aF-17.0
aF-19.0
aF-18.0
aF-20.0
aF-18.0
aF-14.0
aF-18.0
aF-16.0
aF-18.0
aF-20.0
aF-18.0
aF-18.0
aF-16.0
aF-16.0
aF-17.0
aF-18.0
aF-15.0
aF-18.0
aF-18.0
aF-21.0
aF-17.0
aF-20.0
aF-17.0
aF-18.0
aF-18.0
aF-19.0
aF-16.0
aF-17.0
aF-17.0
aF-17.0
aF-17.0
aF-18.0
aF-17.0
aF-17.0
aF-18.0
aF-17.0
aF-16.0
aF-18.0
aF-15.0
aF-19.0
aF-15.0
aF-19.0
aF-15.0
aF-18.0
aF-19.0
aF-15.0
aF-11.0
aF-17.0
aF-16.0
aF-17.0
aF-14.0
aF-17.0
aF-17.0
aF-16.0
aF-16.0
aF-15.0
aF-17.0
aF-18.0
aF-17.0
aF-16.0
aF-14.0
aF-14.0
aF-16.0
aF-15.0
aF-19.0
aF-15.0
aF-16.0
aF-16.0
aF-16.0
aF-16.0
aF-18.0
aF-14.0
aF-16.0
aF-17.0
aF-19.0
aF-16.0
aF-17.0
aF-20.0
aF-16.0
aF-17.0
aF-16.0
aF-18.0
aF-13.0
aF-14.0
aF-16.0
aF-14.0
aF-15.0
aF-15.0
aF-18.0
aF-16.0
aF-19.0
aF-17.0
aF-14.0
aF-20.0
aF-17.0
aF-15.0
aF-18.0
aF-14.0
aF-15.0
aF-15.0
aF-18.0
aF-19.0
aF-19.0
aF-12.0
aF-18.0
aF-13.0
aF-19.0
aF-15.0
aF-15.0
aF-20.0
aF-19.0
aF-18.0
aF-14.0
aF-13.0
aF-15.0
aF-14.0
aF-18.0
aF-17.0
aF-15.0
aF-15.0
aF-15.0
aF-7.0
aF-20.0
aF-19.0
aF-16.0
aF-21.0
aF-15.0
aF-21.0
aF-17.0
aF-18.0
aF-17.0
aF-13.0
aF-20.0
aF-12.0
aF-13.0
aF-16.0
aF-12.0
aF-14.0
aF-15.0
aF-17.0
aF-12.0
aF-14.0
aF-10.0
aF-11.0
aF-17.0
aF-17.0
aF-14.0
aF-19.0
aF-16.0
aF-12.0
aF-15.0
aF-7.0
aF-11.0
aF-14.0
aF-17.0
aF-13.0
aF-17.0
aF-7.0
aF-13.0
aF-11.0
aF-15.0
aF-17.0
aF-11.0
aF-15.0
aF-18.0
aF-17.0
aF-8.0
aF-13.0
aF-16.0
aF-13.0
aF-18.0
aF-15.0
aF-15.0
aF-15.0
aF-16.0
aF-16.0
aF-9.0
aF-10.0
aF-7.0
aF-11.0
aF-9.0
aF-21.0
aF-11.0
aF-11.0
aF-14.0
aF-11.0
aF-10.0
aF-15.0
aF-16.0
aF-10.0
aF-13.0
aF-12.0
aF-5.0
aF-8.0
aF-13.0
aF-17.0
aF-8.0
aF-13.0
aF-15.0
aF-10.0
aF-17.0
aF-3.0
aF-13.0
aF-7.0
aF-12.0
aF-9.0
aF-11.0
aF-3.0
aF-6.0
aF-8.0
aF4.0
aF-6.0
aF-13.0
aF-9.0
aF-9.0
aF-10.0
aF-6.0
aF-9.0
aF-2.0
aF-13.0
aF-8.0
aF3.0
aF-11.0
aF-14.0
aF-13.0
aF-1.0
aF-12.0
aF-16.0
aF-10.0
aF5.0
aF-9.0
aF-5.0
aF-8.0
aF-3.0
aF2.0
aF-11.0
aF-14.0
aF-11.0
aF-8.0
aF-2.0
aF-6.0
aF-11.0
aF-1.0
aF-2.0
aF7.0
aF2.0
aF-5.0
aF-9.0
aF5.0
aF-5.0
aF-12.0
aF4.0
aF-7.0
aF6.0
aF-13.0
aF-9.0
aF-13.0
aF-17.0
aF-2.0
aF-7.0
aF-13.0
aF-17.0
aF-10.0
aF-10.0
aF-5.0
aF4.0
aF4.0
aF-7.0
aF-12.0
aF8.0
aF-10.0
aF2.0
aF6.0
aF7.0
aF-2.0
aF-2.0
aF-15.0
aF3.0
aF-2.0
aF4.0
aF1.0
aF4.0
aF5.0
aF-4.0
aF3.0
aF-6.0
aF-1.0
aF8.0
aF3.0
aF6.0
aF1.0
aF7.0
aF-5.0
aF-3.0
aF-8.0
aF-2.0
aF1.0
aF9.0
aF1.0
aF-7.0
aF7.0
aF-11.0
aF1.0
aF3.0
aF-8.0
aF-10.0
aF4.0
aF9.0
aF3.0
aF2.0
aF4.0
aF6.0
aF4.0
aF1.0
aF4.0
aF-5.0
aF-2.0
aF1.0
aF-6.0
aF-3.0
aF7.0
aF-4.0
aF7.0
aF7.0
aF7.0
aF4.0
aF7.0
aF-6.0
aF3.0
aF9.0
aF8.0
aF6.0
aF3.0
aF-2.0
aF4.0
aF5.0
aF1.0
aF3.0
aF2.0
aF1.0
aF3.0
aF3.0
aF9.0
aF4.0
aF6.0
aF-4.0
aF12.0
aF5.0
aF5.0
aF3.0
aF9.0
aF5.0
aF-8.0
aF9.0
aF6.0
aF11.0
aF9.0
aF12.0
aF13.0
aF9.0
aF-5.0
aF14.0
aF-2.0
aF9.0
aF11.0
aF2.0
aF5.0
aF8.0
aF5.0
aF9.0
aF10.0
aF9.0
aF10.0
aF12.0
aF16.0
aF13.0
aF14.0
aF6.0
aF-6.0
aF13.0
aF13.0
aF14.0
aF19.0
aF13.0
aF9.0
aF15.0
aF12.0
aF18.0
aF12.0
aF14.0
aF16.0
aF-1.0
aF12.0
aF14.0
aF9.0
aF15.0
aF14.0
aF12.0
aF7.0
aF10.0
aF14.0
aF10.0
aF10.0
aF14.0
aF10.0
aF17.0
aF15.0
aF15.0
aF17.0
aF17.0
aF16.0
aF17.0
aF14.0
aF17.0
aF16.0
aF17.0
aF16.0
aF10.0
aF17.0
aF16.0
aF14.0
aF14.0
aF14.0
aF11.0
aF19.0
aF19.0
aF16.0
aF17.0
aF9.0
aF14.0
aF20.0
aF13.0
aF18.0
aF17.0
aF18.0
aF15.0
aF12.0
aF17.0
aF20.0
aF18.0
aF8.0
aF18.0
aF16.0
aF17.0
aF12.0
aF19.0
aF18.0
aF16.0
aF12.0
aF16.0
aF19.0
aF16.0
aF17.0
aF16.0
aF19.0
aF14.0
aF18.0
aF20.0
aF12.0
aF17.0
aF21.0
aF18.0
aF18.0
aF16.0
aF21.0
aF18.0
aF14.0
aF18.0
aF15.0
aF18.0
aF17.0
aF14.0
aF18.0
aF13.0
aF15.0
aF18.0
aF14.0
aF18.0
aF15.0
aF18.0
aF14.0
aF17.0
aF13.0
aF20.0
aF19.0
aF14.0
aF18.0
aF16.0
aF17.0
aF19.0
aF18.0
aF17.0
aF17.0
aF13.0
aF17.0
aF15.0
aF16.0
aF15.0
aF13.0
aF14.0
aF15.0
aF16.0
aF18.0
aF19.0
aF18.0
aF17.0
aF21.0
aF16.0
aF13.0
aF19.0
aF13.0
aF15.0
aF19.0
aF18.0
aF18.0
aF12.0
aF14.0
aF12.0
aF18.0
aF17.0
aF16.0
aF15.0
aF19.0
aF16.0
aF13.0
aF18.0
aF17.0
aF15.0
aF12.0
aF15.0
aF17.0
aF14.0
aF17.0
aF14.0
aF16.0
aF18.0
aF17.0
aF17.0
aF19.0
aF18.0
aF17.0
aF17.0
aF18.0
aF14.0
aF17.0
aF14.0
aF20.0
aF19.0
aF16.0
aF20.0
aF16.0
aF18.0
aF18.0
aF12.0
aF18.0
aF16.0
aF18.0
aF16.0
aF16.0
aF16.0
aF19.0
aF20.0
aF17.0
aF16.0
aF17.0
aF16.0
aF20.0
aF16.0
aF17.0
aF18.0
aF18.0
aF14.0
aF17.0
aF14.0
aF18.0
aF17.0
aF17.0
aF17.0
aF21.0
aF18.0
aF15.0
aF16.0
aF18.0
aF19.0
aF19.0
aF17.0
aF17.0
aF19.0
aF18.0
aF15.0
aF20.0
aF14.0
aF16.0
aF19.0
aF17.0
aF17.0
aF18.0
aF15.0
aF16.0
aF18.0
aF19.0
aF16.0
aF14.0
aF19.0
aF17.0
aF15.0
aF18.0
aF19.0
aF18.0
aF17.0
aF16.0
aF18.0
aF16.0
aF15.0
aF20.0
aF16.0
aF20.0
aF16.0
aF18.0
aF15.0
aF19.0
aF17.0
aF18.0
aF16.0
aF16.0
aF17.0
aF17.0
aF17.0
aF16.0
aF16.0
aF17.0
aF18.0
aF18.0
aF19.0
aF21.0
aF18.0
aF20.0
aF18.0
aF15.0
aF17.0
aF19.0
aF10.0
aF18.0
aF20.0
aF16.0
aF18.0
aF20.0
aF16.0
aF17.0
aF14.0
aF21.0
aF18.0
aF20.0
aF16.0
aF20.0
aF13.0
aF21.0
aF13.0
aF19.0
aF19.0
aF16.0
aF19.0
aF19.0
aF18.0
aF19.0
aF17.0
aF18.0
aF16.0
aF18.0
aF14.0
aF20.0
aF18.0
aF19.0
aF16.0
aF19.0
aF19.0
aF15.0
aF17.0
aF19.0
aF16.0
aF17.0
aF19.0
aF19.0
aF11.0
aF19.0
aF15.0
aF14.0
aF16.0
aF17.0
aF20.0
aF15.0
aF20.0
aF18.0
aF18.0
aF17.0
aF16.0
aF18.0
aF17.0
aF19.0
aF18.0
aF20.0
aF14.0
aF15.0
aF17.0
aF15.0
aF19.0
aF19.0
aF18.0
aF17.0
aF17.0
aF20.0
aF20.0
aF18.0
aF20.0
aF16.0
aF13.0
aF18.0
aF21.0
aF20.0
aF15.0
aF16.0
aF17.0
aF17.0
aF21.0
aF18.0
aF18.0
aF20.0
aF21.0
aF18.0
aF18.0
aF18.0
aF19.0
aF19.0
aF17.0
aF18.0
aF20.0
aF21.0
aF17.0
aF21.0
aF19.0
aF15.0
aF19.0
aF17.0
aF18.0
aF20.0
aF21.0
aF20.0
aF16.0
aF19.0
aF17.0
aF21.0
aF18.0
aF14.0
aF20.0
aF17.0
aF17.0
aF11.0
aF17.0
aF19.0
aF17.0
aF19.0
aF10.0
aF17.0
aF17.0
aF19.0
aF19.0
aF17.0
aF19.0
aF17.0
aF20.0
aF17.0
aF18.0
aF19.0
aF20.0
aF20.0
aF17.0
aF15.0
aF20.0
aF16.0
aF20.0
aF20.0
aF19.0
aF14.0
aF19.0
aF17.0
aF20.0
aF19.0
aF20.0
aF18.0
aF19.0
aF21.0
aF16.0
aF17.0
aF18.0
aF19.0
aF14.0
aF20.0
aF18.0
aF18.0
aF15.0
aF18.0
aF19.0
aF15.0
aF21.0
aF20.0
aF19.0
aF19.0
aF18.0
aF17.0
aF17.0
aF19.0
aF15.0
aF18.0
aF19.0
aF19.0
aF19.0
aF19.0
aF21.0
aF19.0
aF16.0
aF18.0
aF19.0
aF17.0
aF21.0
aF17.0
aF17.0
aF18.0
aF20.0
aF18.0
aF15.0
aF19.0
aF21.0
aF18.0
aF19.0
aF16.0
aF20.0
aF14.0
aF17.0
aF19.0
aF13.0
aF18.0
aF19.0
aF19.0
aF18.0
aF19.0
aF19.0
aF20.0
aF17.0
aF17.0
aF21.0
aF19.0
aF13.0
aF18.0
aF15.0
aF18.0
aF17.0
aF18.0
aF18.0
aF15.0
aF19.0
aF18.0
aF16.0
aF20.0
aF14.0
aF19.0
aF19.0
aF16.0
aF19.0
aF18.0
aF16.0
aF19.0
aF17.0
aF18.0
aF19.0
aF18.0
aF19.0
aF18.0
aF19.0
aF16.0
aF18.0
aF17.0
aF16.0
aF18.0
aF17.0
aF19.0
aF19.0
aF21.0
aF20.0
aF20.0
aF18.0
aF20.0
aF18.0
aF20.0
aF20.0
aF19.0
aF18.0
aF19.0
aF14.0
aF19.0
aF19.0
aF20.0
aF19.0
aF20.0
aF20.0
aF19.0
aF19.0
aF19.0
aF19.0
aF20.0
aF20.0
aF21.0
aF21.0
aF20.0
aF20.0
aF19.0
aF18.0
aF20.0
aF19.0
aF17.0
aF16.0
aF20.0
aF15.0
aF17.0
aF19.0
aF18.0
aF20.0
aF19.0
aF19.0
aF20.0
aF18.0
aF17.0
aF20.0
aF21.0
aF17.0
aF19.0
aF18.0
aF19.0
aF16.0
aF16.0
aF17.0
aF19.0
aF20.0
aF19.0
aF19.0
aF16.0
aF16.0
aF20.0
aF15.0
aF20.0
aF20.0
aF17.0
aF19.0
aF18.0
aF21.0
aF18.0
aF18.0
aF19.0
aF19.0
aF20.0
aF21.0
aF17.0
aF20.0
aF18.0
aF21.0
aF16.0
aF17.0
aF19.0
aF19.0
aF19.0
aF20.0
aF21.0
aF19.0
aF19.0
aF16.0
aF20.0
aF19.0
aF19.0
aF19.0
aF17.0
aF18.0
aF19.0
aF20.0
aF20.0
aF21.0
aF20.0
aF21.0
aF17.0
aF17.0
aF19.0
aF21.0
aF20.0
aF18.0
aF21.0
aF19.0
aF20.0
aF19.0
aF19.0
aF20.0
aF20.0
aF19.0
aF18.0
aF18.0
aF20.0
aF21.0
aF16.0
aF18.0
aF18.0
aF18.0
aF21.0
aF18.0
aF20.0
aF21.0
aF19.0
aF13.0
aF17.0
aF21.0
aF20.0
aF17.0
aF17.0
aF19.0
aF21.0
aF19.0
aF20.0
aF21.0
aF14.0
aF20.0
aF19.0
aF19.0
aF20.0
aF16.0
aF19.0
aF21.0
aF21.0
aF17.0
aF20.0
aF21.0
aF19.0
aF21.0
aF18.0
aF19.0
aF21.0
aF17.0
aF20.0
aF20.0
aF19.0
aF20.0
aF19.0
aF20.0
aF17.0
aF21.0
aF20.0
aF20.0
aF20.0
aF20.0
aF18.0
aF21.0
aF20.0
aF20.0
aF20.0
aF19.0
aF21.0
aF19.0
aF15.0
aF20.0
aF18.0
aF21.0
aF17.0
aF19.0
aF19.0
aF19.0
aF18.0
aF17.0
aF18.0
aF19.0
aF20.0
aF18.0
aF17.0
aF21.0
aF19.0
aF18.0
aF20.0
aF20.0
aF21.0
aF20.0
aF20.0
aF19.0
aF19.0
aF20.0
aF21.0
aF19.0
aF18.0
aF14.0
aF19.0
aF19.0
aF17.0
aF19.0
aF17.0
aF20.0
aF18.0
aF19.0
aF19.0
aF19.0
aF19.0
aF16.0
aF21.0
aF19.0
aF20.0
aF20.0
aF19.0
aF21.0
aF20.0
aF19.0
aF18.0
aF18.0
aF19.0
aF17.0
aF19.0
aF19.0
aF20.0
aF19.0
aF21.0
aF19.0
aF20.0
aF20.0
aF20.0
aF19.0
aF20.0
aF20.0
aF18.0
aF20.0
aF19.0
aF20.0
aF16.0
aF20.0
aF21.0
aF20.0
aF18.0
aF19.0
aF16.0
aF19.0
aF20.0
aF19.0
aF20.0
aF17.0
aF21.0
aF17.0
aF19.0
aF21.0
aF20.0
aF21.0
aF19.0
aF19.0
aF20.0
aF21.0
aF20.0
aF20.0
aF19.0
aF19.0
aF18.0
aF18.0
aF21.0
aF16.0
aF19.0
aF17.0
aF20.0
aF20.0
aF19.0
aF20.0
aF19.0
aF20.0
aF16.0
aF21.0
aF18.0
aF21.0
aF20.0
aF20.0
aF21.0
aF18.0
aF20.0
aF18.0
aF18.0
aF20.0
aF20.0
aF20.0
aF20.0
aF19.0
aF18.0
aF20.0
aF21.0
aF20.0
aF19.0
aF20.0
aF21.0
aF18.0
aF21.0
aF19.0
aF20.0
aF18.0
aF19.0
aF20.0
aF19.0
aF18.0
aF18.0
aF19.0
aF18.0
aF16.0
aF20.0
aF21.0
aF20.0
aF21.0
aF18.0
aF19.0
aF20.0
aF19.0
aF20.0
aF19.0
aF19.0
aF18.0
aF18.0
aF19.0
aF17.0
aF18.0
aF20.0
aF19.0
aF20.0
aF19.0
aF20.0
aF19.0
aF19.0
aF18.0
aF20.0
aF21.0
aF20.0
aF18.0
aF20.0
aF19.0
aF20.0
aF19.0
aF21.0
aF19.0
aF20.0
aF20.0
aF20.0
aF21.0
aF21.0
aF19.0
aF19.0
aF17.0
aF19.0
aF19.0
aF21.0
aF19.0
aF21.0
aF18.0
aF20.0
aF20.0
aF20.0
aF20.0
aF19.0
aF21.0
aF19.0
aF20.0
aF20.0
aF21.0
aF20.0
aF19.0
aF19.0
aF21.0
aF21.0
aF20.0
aF20.0
aF18.0
aF20.0
aF18.0
aF20.0
aF20.0
aF19.0
aF21.0
aF19.0
aF20.0
aF20.0
aF21.0
aF21.0
aF20.0
aF21.0
aF19.0
aF21.0
aF21.0
aF20.0
aF20.0
aF21.0
aF19.0
aF21.0
aF20.0
aF21.0
aF20.0
aF21.0
aF19.0
aF19.0
aF18.0
aF19.0
aF20.0
aF21.0
aF19.0
aF21.0
aF20.0
aF20.0
aF21.0
aF20.0
aF21.0
aF21.0
aF20.0
aF20.0
aF20.0
aF20.0
aF20.0
aF21.0
aF21.0
aF21.0
aF21.0
aF21.0
aF20.0
aF20.0
aF18.0
aF20.0
aF19.0
aF20.0
aF21.0
aF20.0
aF20.0
aF20.0
aF19.0
aF21.0
aF20.0
aF20.0
aF19.0
aF19.0
aF21.0
aF17.0
aF20.0
aF21.0
aF21.0
aF19.0
aF21.0
aF21.0
aF20.0
aF20.0
aF20.0
aF18.0
aF19.0
aF21.0
aF19.0
aF18.0
aF20.0
aF20.0
aF21.0
aF20.0
aF19.0
aF20.0
aF20.0
aF21.0
aF21.0
aF21.0
aF21.0
aF19.0
aF21.0
aF19.0
aF19.0
aF21.0
aF21.0
aF21.0
aF20.0
aF17.0
aF21.0
aF20.0
aF20.0
aF19.0
aF21.0
aF21.0
aF20.0
aF21.0
aF21.0
aF20.0
aF21.0
aF20.0
aF21.0
aF21.0
aF21.0
aF21.0
aF20.0
aF21.0
aF21.0
aF20.0
aF20.0
aF19.0
aF20.0
aF19.0
aF21.0
aF18.0
aF19.0
aF21.0
aF19.0
aF21.0
aF20.0
aF20.0
aF20.0
aF20.0
aF21.0
aF18.0
aF20.0
aF21.0
aF20.0
aF20.0
aF19.0
aF20.0
aF21.0
aF19.0
aF19.0
aF20.0
aF19.0
aF20.0
aF21.0
aF20.0
aF20.0
aF19.0
aF21.0
aF20.0
aF20.0
aF20.0
aF21.0
aF20.0
aF20.0
aF20.0
aF21.0
aF19.0
aF20.0
aF21.0
aF21.0
aF20.0
aF21.0
aF20.0
aF21.0
aF20.0
aF21.0
aF21.0
aF20.0
aF21.0
aF20.0
aF20.0
aF19.0
aF20.0
aF19.0
aF20.0
aF20.0
aF21.0
aF21.0
aF21.0
aF19.0
aF20.0
aF20.0
aF21.0
aF21.0
aF17.0
aF20.0
aF21.0
aF21.0
aF20.0
aF20.0
aF21.0
aF20.0
aF21.0
aF20.0
aF21.0
aF21.0
aF21.0
aF20.0
aF21.0
aF19.0
aF21.0
aF21.0
aF21.0
aF21.0
aF21.0
aF20.0
aF21.0
aF21.0
aF21.0
aF19.0
aF21.0
aF20.0
aF21.0
aF19.0
aF21.0
aF21.0
aF20.0
aF21.0
aF21.0
aF21.0
aF20.0
aF20.0
aF21.0
aF20.0
aF21.0
aF20.0
aF19.0
aF21.0
aF21.0
aF20.0
aF21.0
aF20.0
aF20.0
aF21.0
aF21.0
aF21.0
aF20.0
aF20.0
aF21.0
aF21.0
aF21.0
aF20.0
aF20.0
aF21.0
aF21.0
aF20.0
aF19.0
aF20.0
aF20.0
aF21.0
aF21.0
aF19.0
aF19.0
aF21.0
aF21.0
aF21.0
aF21.0
aF20.0
aF19.0
aF20.0
aF20.0
aF21.0
aF20.0
aF20.0
aF21.0
aF20.0
aF21.0
aF21.0
aF19.0
aF19.0
aF20.0
aF21.0
aF21.0
aF21.0
aF20.0
aF20.0
aF21.0
aF20.0
aF21.0
aF21.0
aF21.0
aF20.0
aF21.0
aF21.0
aF21.0
aF21.0
aF21.0
aF21.0
aF19.0
aF21.0
aF19.0
aF21.0
aF20.0
aF20.0
aF21.0
aF21.0
aF21.0
aF21.0
aF20.0
aF20.0
aF21.0
aF20.0
aF21.0
aF21.0
aF20.0
aF21.0
aF20.0
aF21.0
aF20.0
aF21.0
aF21.0
aF20.0
aF21.0
aF20.0
aF19.0
aF21.0
aF21.0
aF21.0
aF21.0
aF21.0
aF20.0
aF21.0
aF21.0
aF21.0
aF20.0
aF19.0
aF20.0
aF21.0
aF21.0
aF21.0
aF21.0
aF20.0
aF21.0
aF20.0
aF20.0
aF19.0
aF20.0
aF20.0
aF20.0
aF21.0
aF21.0
aF21.0
aF20.0
aF21.0
aF21.0
aF21.0
aF21.0
aF19.0
aF19.0
aF21.0
aF21.0
aF21.0
aF21.0
aF20.0
aF21.0
aF19.0
aF19.0
aF21.0
aF21.0
aF21.0
aF19.0
aF19.0
aF21.0
aF21.0
aF21.0
aF21.0
aF20.0
aF21.0
aF21.0
aF21.0
aF21.0
aF21.0
aF19.0
aF21.0
aF21.0
aF20.0
aF21.0
aF21.0
aF20.0
aF20.0
aF20.0
aF21.0
aF20.0
aF20.0
aF21.0
aF21.0
aF21.0
aF21.0
aF21.0
aF21.0
aF20.0
aF21.0
aF21.0
aF19.0
aF20.0
aF21.0
aF21.0
aF21.0
aF21.0
aF20.0
aF20.0
aF21.0
aF21.0
aF21.0
aF21.0
aF20.0
aF21.0
aF20.0
aF20.0
aF21.0
aF21.0
aF21.0
aF21.0
aF20.0
aF20.0
aF20.0
aF20.0
aF19.0
aF21.0
aF20.0
aF21.0
aF20.0
aF19.0
aF21.0
aF20.0
aF21.0
aF20.0
aF21.0
aF21.0
aF21.0
aF21.0
aF21.0
aF20.0
aF21.0
aF21.0
aF20.0
aF20.0
aF21.0
aF21.0
aF21.0
aF20.0
aF21.0
aF20.0
aF21.0
aF21.0
aF19.0
aF20.0
aF21.0
aF20.0
aF21.0
aF19.0
aF20.0
aF21.0
aF21.0
aF21.0
aF21.0
aF21.0
aF21.0
aF21.0
aF21.0
aF20.0
aF21.0
aF21.0
aF20.0
aF21.0
aF21.0
aF21.0
aF21.0
aF21.0
aF19.0
aF21.0
aF21.0
aF19.0
aF21.0
aF19.0
aF21.0
aF20.0
aF21.0
aF20.0
aF20.0
aF21.0
aF20.0
aF20.0
aF21.0
aF19.0
aF19.0
aF21.0
aF21.0
aF21.0
aF21.0
aF20.0
aF20.0
aF21.0
aF21.0
aF20.0
aF21.0
aF21.0
aF21.0
aF21.0
aF20.0
aF21.0
aF21.0
aF21.0
aF20.0
aF20.0
aF21.0
aF21.0
aF20.0
aF21.0
aF21.0
aF21.0
aF21.0
aF20.0
aF21.0
aF20.0
aF21.0
aF19.0
aF20.0
aF20.0
aF21.0
aF21.0
aF20.0
aF21.0
aF20.0
aF21.0
aF21.0
aF21.0
aF19.0
aF21.0
aF21.0
aF20.0
aF20.0
aF21.0
aF20.0
aF21.0
aF21.0
aF21.0
aF20.0
aF20.0
aF21.0
aF18.0
aF20.0
aF21.0
aF21.0
aF19.0
aF20.0
aF19.0
aF21.0
aF21.0
aF20.0
aF21.0
aF20.0
aF21.0
aF21.0
aF19.0
aF20.0
aF21.0
aF21.0
aF20.0
aF21.0
aF21.0
aF21.0
aF21.0
aF21.0
aF21.0
aF21.0
aF21.0
aF20.0
aF20.0
aF21.0
aF20.0
aF21.0
aF21.0
aF21.0
aF21.0
aF20.0
aF21.0
aF21.0
aF20.0
aF21.0
aF21.0
aF21.0
aF20.0
aF20.0
aF21.0
aF21.0
aF21.0
aF20.0
aF21.0
aF20.0
aF20.0
aF20.0
aF21.0
aF20.0
aF21.0
aF21.0
aF20.0
aF20.0
aF21.0
aF21.0
aF21.0
aF20.0
aF21.0
aF21.0
aF20.0
aF21.0
aF21.0
aF21.0
aF20.0
aF20.0
aF21.0
aF19.0
aF21.0
aF21.0
aF21.0
aF20.0
aF20.0
aF21.0
aF20.0
aF20.0
aF21.0
aF21.0
aF20.0
aF21.0
aF21.0
aF20.0
aF20.0
aF20.0
aF21.0
aF21.0
aF20.0
aF20.0
aF19.0
aF21.0
aF20.0
aF20.0
aF21.0
aF20.0
aF20.0
aF20.0
aF21.0
aF21.0
aF21.0
aF20.0
aF21.0
aF20.0
aF21.0
aF20.0
aF21.0
aF20.0
aF20.0
aF20.0
aF21.0
aF21.0
aF21.0
aF21.0
aF20.0
aF21.0
aF21.0
aF21.0
aF21.0
aF20.0
aF21.0
aF21.0
aF21.0
aF21.0
aF19.0
aF19.0
aF20.0
aF21.0
aF21.0
aF21.0
aF21.0
aF19.0
aF20.0
aF20.0
aF20.0
aF21.0
aF21.0
aF21.0
aF21.0
aF21.0
aF20.0
aF20.0
aF20.0
aF20.0
aF20.0
aF21.0
aF20.0
aF20.0
aF21.0
aF21.0
aF19.0
aF19.0
aF20.0
aF20.0
aF20.0
aF21.0
aF20.0
aF21.0
aF19.0
aF21.0
aF21.0
aF21.0
aF20.0
aF20.0
aF21.0
aF21.0
aF21.0
aF21.0
aF21.0
aF20.0
aF21.0
aF21.0
aF21.0
aF21.0
aF21.0
aF21.0
aF20.0
aF19.0
aF20.0
aF21.0
aF21.0
aF21.0
aF21.0
aF20.0
aF18.0
aF20.0
aF21.0
aF21.0
aF20.0
aF21.0
aF20.0
aF20.0
aF21.0
aF20.0
aF21.0
aF21.0
aF20.0
aF20.0
aF21.0
aF21.0
aF21.0
aF20.0
aF21.0
aF21.0
aF21.0
aF21.0
aF21.0
aF21.0
aF20.0
aF21.0
aF21.0
aF21.0
aF20.0
aF19.0
aF21.0
aF20.0
aF21.0
aF21.0
aF19.0
aF21.0
aF21.0
aF20.0
aF20.0
aF20.0
aF21.0
aF21.0
aF19.0
aF20.0
aF20.0
aF20.0
aF21.0
aF20.0
aF21.0
aF21.0
aF20.0
aF20.0
aF21.0
aF20.0
aF21.0
aF21.0
aF21.0
aF21.0
aF20.0
aF20.0
aF21.0
aF21.0
aF19.0
aF21.0
aF21.0
aF20.0
aF20.0
aF21.0
aF21.0
aF21.0
aF20.0
aF20.0
aF19.0
aF20.0
aF21.0
aF21.0
aF21.0
aF20.0
aF19.0
aF21.0
aF20.0
aF21.0
aF21.0
aF21.0
aF21.0
aF21.0
aF20.0
aF21.0
aF21.0
aF20.0
aF20.0
aF21.0
aF21.0
aF21.0
aF21.0
aF20.0
aF21.0
aF19.0
aF21.0
aF21.0
aF21.0
aF21.0
aF21.0
aF21.0
aF21.0
aF20.0
aF19.0
aF21.0
aF21.0
aF21.0
aF21.0
aF21.0
aF21.0
aF21.0
aF21.0
aF21.0
aF20.0
aF21.0
aF21.0
aF21.0
aF20.0
aF21.0
aF20.0
aF20.0
aF21.0
aF21.0
aF21.0
aF20.0
aF20.0
aF20.0
aF21.0
aF20.0
aF21.0
aF21.0
aF21.0
aF21.0
aF19.0
aF21.0
aF21.0
aF21.0
aF21.0
aF19.0
aF20.0
aF21.0
aF21.0
aF20.0
aF20.0
aF20.0
aF21.0
aF21.0
aF20.0
aF20.0
aF19.0
aF21.0
aF21.0
aF20.0
aF20.0
aF20.0
aF20.0
aF20.0
aF20.0
aF21.0
aF19.0
aF19.0
aF20.0
aF21.0
aF21.0
aF21.0
aF20.0
aF21.0
aF20.0
aF21.0
aF21.0
aF21.0
aF21.0
aF20.0
aF21.0
aF21.0
aF21.0
aF21.0
aF20.0
aF20.0
aF21.0
aF21.0
aF20.0
aF21.0
aF21.0
aF21.0
aF20.0
aF21.0
aF20.0
aF20.0
aF21.0
aF21.0
aF19.0
aF18.0
aF21.0
aF19.0
aF20.0
aF21.0
aF21.0
aF20.0
aF20.0
aF21.0
aF21.0
aF21.0
aF20.0
aF21.0
aF20.0
aF20.0
aF21.0
aF20.0
aF20.0
aF18.0
aF21.0
aF21.0
aF20.0
aF21.0
aF21.0
aF21.0
aF21.0
aF21.0
aF20.0
aF21.0
aF21.0
aF21.0
aF21.0
aF21.0
aF21.0
aF20.0
aF21.0
aF20.0
aF21.0
aF21.0
aF19.0
aF19.0
aF21.0
aF21.0
aF21.0
aF21.0
aF19.0
aF21.0
aF21.0
aF21.0
aF19.0
aF21.0
aF21.0
aF21.0
aF20.0
aF20.0
aF21.0
aF21.0
aF20.0
aF21.0
aF21.0
aF21.0
aF21.0
aF21.0
aF20.0
aF21.0
aF21.0
aF20.0
aF21.0
aF21.0
aF20.0
aF21.0
aF21.0
aF18.0
aF21.0
aF21.0
aF21.0
aF21.0
aF20.0
aF21.0
aF21.0
aF20.0
aF21.0
aF21.0
aF21.0
aF21.0
aF21.0
aF21.0
aF20.0
aF20.0
aF21.0
aF21.0
aF21.0
aF20.0
aF20.0
aF20.0
aF21.0
aF20.0
aF18.0
aF19.0
aF20.0
aF20.0
aF21.0
aF20.0
aF20.0
aF21.0
aF21.0
aF20.0
aF20.0
aF21.0
aF20.0
aF20.0
aF21.0
aF20.0
aF21.0
aF20.0
aF20.0
aF19.0
aF20.0
aF21.0
aF21.0
aF21.0
aF21.0
aF21.0
aF21.0
aF20.0
aF21.0
aF21.0
aF21.0
aF21.0
aF21.0
aF20.0
aF20.0
aF20.0
aF21.0
aF21.0
aF20.0
aF20.0
aF21.0
aF20.0
aF21.0
aF20.0
aF21.0
aF21.0
aF21.0
aF21.0
aF20.0
aF20.0
aF21.0
aF20.0
aF20.0
aF20.0
aF19.0
aF21.0
aF21.0
aF21.0
aF19.0
aF20.0
aF20.0
aF20.0
aF19.0
aF21.0
aF21.0
aF21.0
aF21.0
aF21.0
aF21.0
aF20.0
aF21.0
aF20.0
aF20.0
aF21.0
aF20.0
aF20.0
aF18.0
aF21.0
aF21.0
aF21.0
aF20.0
aF21.0
aF20.0
aF21.0
aF21.0
aF21.0
aF20.0
aF21.0
aF20.0
aF21.0
aF20.0
aF20.0
aF20.0
aF21.0
aF20.0
aF20.0
aF21.0
aF21.0
aF21.0
aF21.0
aF21.0
aF20.0
aF20.0
aF20.0
aF21.0
aF21.0
aF21.0
aF21.0
aF21.0
aF20.0
aF21.0
aF21.0
aF21.0
aF20.0
aF21.0
aF20.0
aF21.0
aF20.0
aF21.0
aF20.0
aF21.0
aF21.0
aF20.0
aF20.0
aF21.0
aF21.0
aF21.0
aF20.0
aF20.0
aF21.0
aF21.0
aF20.0
aF21.0
aF21.0
aF21.0
aF20.0
aF21.0
aF21.0
aF21.0
aF21.0
aF21.0
aF21.0
aF21.0
aF21.0
aF21.0
aF21.0
aF21.0
aF19.0
aF20.0
aF21.0
aF21.0
aF21.0
aF18.0
aF20.0
aF21.0
aF21.0
aF21.0
aF20.0
aF20.0
aF21.0
aF21.0
aF21.0
aF20.0
aF21.0
aF21.0
aF21.0
aF21.0
aF21.0
aF21.0
aF21.0
aF21.0
aF21.0
aF21.0
aF21.0
aF21.0
aF20.0
aF21.0
aF21.0
aF21.0
aF21.0
aF21.0
aF21.0
aF20.0
aF20.0
aF21.0
aF21.0
aF19.0
aF20.0
aF20.0
aF20.0
aF19.0
aF21.0
aF18.0
aF21.0
aF21.0
aF19.0
aF20.0
aF21.0
aF21.0
aF21.0
aF21.0
aF21.0
aF19.0
aF21.0
aF21.0
aF21.0
aF21.0
aF20.0
aF21.0
aF21.0
aF21.0
aF21.0
aF20.0
aF19.0
aF20.0
aF20.0
aF21.0
aF21.0
aF21.0
aF20.0
aF21.0
aF21.0
aF20.0
aF20.0
aF20.0
aF21.0
aF21.0
aF20.0
aF21.0
aF21.0
aF20.0
aF19.0
aF21.0
aF20.0
aF21.0
aF21.0
aF21.0
aF19.0
aF21.0
aF20.0
aF20.0
aF21.0
aF20.0
aF21.0
aF20.0
aF21.0
aF21.0
aF21.0
aF21.0
aF20.0
aF19.0
aF21.0
aF21.0
aF21.0
aF20.0
aF21.0
aF21.0
aF21.0
aF21.0
aF21.0
aF21.0
aF21.0
aF20.0
aF20.0
aF19.0
aF21.0
aF20.0
aF20.0
aF21.0
aF20.0
aF21.0
aF21.0
aF21.0
aF20.0
aF20.0
aF21.0
aF20.0
aF20.0
aF20.0
aF19.0
aF21.0
aF21.0
aF19.0
aF21.0
aF21.0
aF20.0
aF21.0
aF21.0
aF21.0
aF21.0
aF21.0
aF20.0
aF18.0
aF20.0
aF20.0
aF21.0
aF21.0
aF20.0
aF21.0
aF21.0
aF20.0
aF21.0
aF21.0
aF21.0
aF21.0
aF21.0
aF21.0
aF21.0
aF20.0
aF21.0
aF21.0
aF21.0
aF21.0
aF21.0
aF20.0
aF21.0
aF21.0
aF20.0
aF21.0
aF21.0
aF20.0
aF20.0
aF20.0
aF21.0
aF21.0
aF21.0
aF20.0
aF19.0
aF21.0
aF20.0
aF21.0
aF20.0
aF21.0
aF21.0
aF21.0
aF19.0
aF21.0
aF20.0
aF20.0
aF20.0
aF21.0
aF21.0
aF21.0
aF21.0
aF20.0
aF21.0
aF21.0
aF21.0
aF20.0
aF21.0
aF20.0
aF20.0
aF21.0
aF19.0
aF20.0
aF21.0
aF21.0
aF21.0
aF20.0
aF21.0
aF21.0
aF21.0
aF21.0
aF21.0
aF20.0
aF21.0
aF21.0
aF21.0
aF20.0
aF21.0
aF21.0
aF21.0
aF21.0
aF21.0
aF21.0
aF21.0
aF21.0
aF21.0
aF21.0
aF21.0
aF19.0
aF21.0
aF21.0
aF21.0
aF21.0
aF20.0
aF21.0
aF21.0
aF21.0
aF21.0
aF20.0
aF21.0
aF21.0
aF21.0
aF20.0
aF21.0
aF20.0
aF20.0
aF21.0
aF21.0
aF21.0
aF21.0
aF21.0
aF21.0
aF20.0
aF21.0
aF21.0
aF20.0
aF21.0
aF20.0
aF21.0
aF20.0
aF20.0
aF21.0
aF21.0
aF21.0
aF21.0
aF20.0
aF21.0
aF21.0
aF21.0
aF21.0
aF21.0
aF21.0
aF21.0
aF20.0
aF21.0
aF20.0
aF21.0
aF21.0
aF19.0
aF21.0
aF21.0
aF21.0
aF21.0
aF21.0
aF20.0
aF21.0
aF21.0
aF21.0
aF20.0
aF21.0
aF21.0
aF20.0
aF20.0
aF21.0
aF21.0
aF21.0
aF19.0
aF21.0
aF20.0
aF21.0
aF21.0
aF20.0
aF20.0
aF21.0
aF21.0
aF21.0
aF21.0
aF20.0
aF21.0
aF21.0
aF21.0
aF21.0
aF21.0
aF21.0
aF21.0
aF21.0
aF21.0
aF21.0
aF20.0
aF20.0
aF20.0
aF20.0
aF21.0
aF21.0
aF21.0
aF21.0
aF21.0
aF21.0
aF21.0
aF20.0
aF21.0
aF20.0
aF19.0
aF21.0
aF21.0
aF21.0
aF21.0
aF21.0
aF20.0
aF21.0
aF21.0
aF21.0
aF20.0
aF21.0
aF21.0
aF21.0
aF21.0
aF21.0
aF21.0
aF19.0
aF20.0
aF19.0
aF20.0
aF21.0
aF20.0
aF21.0
aF20.0
aF20.0
aF21.0
aF21.0
aF21.0
aF20.0
aF21.0
aF20.0
aF21.0
aF20.0
aF21.0
aF21.0
aF21.0
aF21.0
aF21.0
aF21.0
aF21.0
aF21.0
aF21.0
aF21.0
aF21.0
aF21.0
aF21.0
aF20.0
aF21.0
aF20.0
aF21.0
aF21.0
aF21.0
aF21.0
aF20.0
aF21.0
aF21.0
aF21.0
aF21.0
aF21.0
aF21.0
aF21.0
aF21.0
aF21.0
aF21.0
aF21.0
aF21.0
aF21.0
aF19.0
aF21.0
aF21.0
aF21.0
aF21.0
aF21.0
aF20.0
aF21.0
aF21.0
aF21.0
aF21.0
aF20.0
aF21.0
aF21.0
aF21.0
aF21.0
aF20.0
aF20.0
aF21.0
aF20.0
aF20.0
aF20.0
aF21.0
aF20.0
aF21.0
aF20.0
aF20.0
aF20.0
aF20.0
aF20.0
aF21.0
aF20.0
aF21.0
aF21.0
aF21.0
aF21.0
aF21.0
aF21.0
aF21.0
aF20.0
aF21.0
aF21.0
aF21.0
aF21.0
aF21.0
aF20.0
aF21.0
aF20.0
aF21.0
aF20.0
aF20.0
aF21.0
aF21.0
aF21.0
aF20.0
aF21.0
aF21.0
aF21.0
aF21.0
aF21.0
aF21.0
aF21.0
aF21.0
aF20.0
aF21.0
aF21.0
aF21.0
aF21.0
aF20.0
aF21.0
aF21.0
aF21.0
aF21.0
aF21.0
aF21.0
aF19.0
aF21.0
aF20.0
aF20.0
aF21.0
aF21.0
aF21.0
aF21.0
aF21.0
aF21.0
aF21.0
aF21.0
aF21.0
aF21.0
aF20.0
aF21.0
aF21.0
aF21.0
aF21.0
aF20.0
aF20.0
aF20.0
aF21.0
aF19.0
aF19.0
aF21.0
aF21.0
aF20.0
aF21.0
aF21.0
aF21.0
aF21.0
aF21.0
aF21.0
aF21.0
aF19.0
aF21.0
aF21.0
aF21.0
aF21.0
aF21.0
aF21.0
aF20.0
aF21.0
aF21.0
aF20.0
aF21.0
aF21.0
aF21.0
aF21.0
aF20.0
aF20.0
aF20.0
aF21.0
aF21.0
aF21.0
aF20.0
aF21.0
aF21.0
aF21.0
aF21.0
aF20.0
aF21.0
aF21.0
aF21.0
aF21.0
aF20.0
aF21.0
aF21.0
aF21.0
aF21.0
aF21.0
aF21.0
aF21.0
aF21.0
aF21.0
aF19.0
aF21.0
aF21.0
aF21.0
aF21.0
aF21.0
aF20.0
aF21.0
aF21.0
aF21.0
aF21.0
aF21.0
aF21.0
aF21.0
aF21.0
aF21.0
aF21.0
aF21.0
aF21.0
aF21.0
aF20.0
aF20.0
aF21.0
aF20.0
aF19.0
aF21.0
aF21.0
aF21.0
aF21.0
aF19.0
aF21.0
aF21.0
aF21.0
aF20.0
aF21.0
aF21.0
aF21.0
aF21.0
aF21.0
aF21.0
aF21.0
aF21.0
aF21.0
aF21.0
aF21.0
aF21.0
aF21.0
aF19.0
aF21.0
aF21.0
aF19.0
aF21.0
aF20.0
aF20.0
aF21.0
aF21.0
aF21.0
aF20.0
aF20.0
aF19.0
aF21.0
aF21.0
aF21.0
aF21.0
aF21.0
aF21.0
aF20.0
aF21.0
aF20.0
aF21.0
aF21.0
aF21.0
aF21.0
aF19.0
aF20.0
aF20.0
aF21.0
aF21.0
aF20.0
aF21.0
aF21.0
aF20.0
aF21.0
aF21.0
aF21.0
aF21.0
aF21.0
aF20.0
aF21.0
aF21.0
aF21.0
aF20.0
aF21.0
aF20.0
aF21.0
aF21.0
aF20.0
aF21.0
aF21.0
aF21.0
aF21.0
aF21.0
aF21.0
aF21.0
aF21.0
aF21.0
aF21.0
aF21.0
aF21.0
aF21.0
aF21.0
aF21.0
aF21.0
aF21.0
aF21.0
aF19.0
aF21.0
aF19.0
aF20.0
aF20.0
aF21.0
aF20.0
aF21.0
aF21.0
aF20.0
aF21.0
aF21.0
aF21.0
aF20.0
aF21.0
aF21.0
aF21.0
aF21.0
aF21.0
aF20.0
aF20.0
aF21.0
aF21.0
aF21.0
aF21.0
aF21.0
aF20.0
aF20.0
aF21.0
aF21.0
aF21.0
aF21.0
aF21.0
aF21.0
aF21.0
aF21.0
aF20.0
aF21.0
aF21.0
aF21.0
aF21.0
aF21.0
aF21.0
aF21.0
aF20.0
aF21.0
aF21.0
aF21.0
aF21.0
aF21.0
aF21.0
aF21.0
aF21.0
aF20.0
aF21.0
aF20.0
aF21.0
aF21.0
aF21.0
aF21.0
aF20.0
aF20.0
aF21.0
aF21.0
aF21.0
aF21.0
aF20.0
aF21.0
aF20.0
aF21.0
aF21.0
aF19.0
aF20.0
aF21.0
aF21.0
aF19.0
aF21.0
aF20.0
aF21.0
aF21.0
aF21.0
aF21.0
aF21.0
aF21.0
aF21.0
aF21.0
aF21.0
aF21.0
aF21.0
aF20.0
aF21.0
aF21.0
aF21.0
aF21.0
aF21.0
aF20.0
aF21.0
aF20.0
aF21.0
aF21.0
aF18.0
aF21.0
aF21.0
aF21.0
aF21.0
aF21.0
aF21.0
aF21.0
aF20.0
aF20.0
aF21.0
aF21.0
aF21.0
aF21.0
aF20.0
aF21.0
aF21.0
aF21.0
aF21.0
aF21.0
aF20.0
aF21.0
aF21.0
aF21.0
aF21.0
aF20.0
aF21.0
aF21.0
aF21.0
aF20.0
aF21.0
aF21.0
aF21.0
aF21.0
aF21.0
aF21.0
aF21.0
aF21.0
aF21.0
aF21.0
aF21.0
aF21.0
aF20.0
aF21.0
aF21.0
aF21.0
aF21.0
aF21.0
aF21.0
aF21.0
aF21.0
aF20.0
aF21.0
aF21.0
aF20.0
aF21.0
aF21.0
aF21.0
aF21.0
aF21.0
aF21.0
aF21.0
aF21.0
aF21.0
aF21.0
aF21.0
aF21.0
aF21.0
aF21.0
aF21.0
aF21.0
aF20.0
aF21.0
aF20.0
aF21.0
aF21.0
aF21.0
aF21.0
aF21.0
aF21.0
aF21.0
aF21.0
aF21.0
aF21.0
aF21.0
aF21.0
aF20.0
aF21.0
aF21.0
aF21.0
aF20.0
aF21.0
aF21.0
aF20.0
aF21.0
aF21.0
aF20.0
aF20.0
aF21.0
aF21.0
aF21.0
aF21.0
aF21.0
aF21.0
aF20.0
aF21.0
aF21.0
aF21.0
aF21.0
aF20.0
aF21.0
aF21.0
aF21.0
aF21.0
aF21.0
aF20.0
aF20.0
aF21.0
aF21.0
aF21.0
aF21.0
aF21.0
aF21.0
aF20.0
aF21.0
aF21.0
aF20.0
aF20.0
aF21.0
aF21.0
aF21.0
aF21.0
aF21.0
aF21.0
aF21.0
aF21.0
aF20.0
aF21.0
aF21.0
aF21.0
aF21.0
aF21.0
aF20.0
aF21.0
aF21.0
aF21.0
aF21.0
aF20.0
aF20.0
aF21.0
aF21.0
aF20.0
aF21.0
aF21.0
aF21.0
aF21.0
aF20.0
aF20.0
aF20.0
aF21.0
aF20.0
aF21.0
aF21.0
aF21.0
aF20.0
aF21.0
aF21.0
aF21.0
aF21.0
aF21.0
aF21.0
aF20.0
aF21.0
aF20.0
aF20.0
aF21.0
aF21.0
aF20.0
aF21.0
aF21.0
aF21.0
aF20.0
aF21.0
aF20.0
aF20.0
aF21.0
aF21.0
aF18.0
aF21.0
aF21.0
aF21.0
aF21.0
aF20.0
aF21.0
aF21.0
aF21.0
aF21.0
aF21.0
aF21.0
aF21.0
aF21.0
aF21.0
aF21.0
aF20.0
aF20.0
aF21.0
aF21.0
aF21.0
aF21.0
aF21.0
aF21.0
aF19.0
aF21.0
aF20.0
aF20.0
aF21.0
aF21.0
aF21.0
aF21.0
aF20.0
aF21.0
aF21.0
aF20.0
aF21.0
aF21.0
aF21.0
aF21.0
aF21.0
aF21.0
aF21.0
aF21.0
aF21.0
aF21.0
aF19.0
aF21.0
aF21.0
aF20.0
aF21.0
aF21.0
aF21.0
aF21.0
aF21.0
aF19.0
aF21.0
aF21.0
aF21.0
aF20.0
aF21.0
aF18.0
aF21.0
aF21.0
aF21.0
aF21.0
aF20.0
aF21.0
aF21.0
aF21.0
aF21.0
aF20.0
aF21.0
aF20.0
aF20.0
aF21.0
aF21.0
aF20.0
aF21.0
aF21.0
aF21.0
aF21.0
aF21.0
aF21.0
aF21.0
aF21.0
aF20.0
aF21.0
aF21.0
aF21.0
aF21.0
aF20.0
aF21.0
aF21.0
aF21.0
aF20.0
aF21.0
aF21.0
aF21.0
aF21.0
aF21.0
aF21.0
aF21.0
aF19.0
aF21.0
aF21.0
aF21.0
aF21.0
aF20.0
aF19.0
aF21.0
aF21.0
aF20.0
aF20.0
aF21.0
aF20.0
aF21.0
aF21.0
aF21.0
aF21.0
aF21.0
aF21.0
aF21.0
aF21.0
aF20.0
aF21.0
aF21.0
aF21.0
aF20.0
aF21.0
aF21.0
aF20.0
aF21.0
aF21.0
aF21.0
aF21.0
aF21.0
aF21.0
aF21.0
aF21.0
aF21.0
aF20.0
aF20.0
aF21.0
aF21.0
aF19.0
aF20.0
aF21.0
aF21.0
aF21.0
aF21.0
aF21.0
aF21.0
aF21.0
aF20.0
aF21.0
aF21.0
aF20.0
aF21.0
aF21.0
aF21.0
aF21.0
aF21.0
aF21.0
aF21.0
aF21.0
aF21.0
aF21.0
aF21.0
aF19.0
aF21.0
aF21.0
aF21.0
aF21.0
aF21.0
aF21.0
aF21.0
aF21.0
aF21.0
aF20.0
aF21.0
aF21.0
aF21.0
aF21.0
aF21.0
aF21.0
aF21.0
aF20.0
aF21.0
aF21.0
aF20.0
aF21.0
aF21.0
aF19.0
aF21.0
aF21.0
aF21.0
aF21.0
aF21.0
aF21.0
aF21.0
aF21.0
aF20.0
aF21.0
aF21.0
aF21.0
aF20.0
aF21.0
aF21.0
aF20.0
aF21.0
aF21.0
aF20.0
aF21.0
aF21.0
aF21.0
aF21.0
aF21.0
aF21.0
aF20.0
aF21.0
aF21.0
aF21.0
aF21.0
aF21.0
aF21.0
aF21.0
aF21.0
aF21.0
aF21.0
aF21.0
aF21.0
aF21.0
aF20.0
aF21.0
aF21.0
aF21.0
aF21.0
aF21.0
aF20.0
aF21.0
aF21.0
aF21.0
aF21.0
aF21.0
aF21.0
aF20.0
aF20.0
aF21.0
aF21.0
aF21.0
aF20.0
aF21.0
aF20.0
aF21.0
aF21.0
aF20.0
aF21.0
aF21.0
aF21.0
aF21.0
aF21.0
aF20.0
aF21.0
aF20.0
aF21.0
aF21.0
aF21.0
aF20.0
aF21.0
aF21.0
aF21.0
aF21.0
aF20.0
aF21.0
aF20.0
aF21.0
aF20.0
aF21.0
aF21.0
aF21.0
aF21.0
aF21.0
aF21.0
aF21.0
aF21.0
aF21.0
aF20.0
aF21.0
aF21.0
aF21.0
aF21.0
aF21.0
aF20.0
aF21.0
a.