(lp0
(I60000
cnumpy.core.multiarray
scalar
p1
(cnumpy
dtype
p2
(S'f8'
p3
I0
I1
tp4
Rp5
(I3
S'<'
p6
NNNI-1
I-1
I0
tp7
bS'\xde\xc2\xaf\xc6Dz4\xc0'
p8
tp9
Rp10
F-inf
F-20.0
tp11
a(I70000
g1
(g5
S'.\xdf\xf2-\xdfr4\xc0'
p12
tp13
Rp14
F-inf
F-21.0
tp15
a(I80000
g1
(g5
S'\x8c.\xba\xe8\xa2k4\xc0'
p16
tp17
Rp18
F-inf
F-19.0
tp19
a(I90000
g1
(g5
S'\x15\xbc\x9c\x82\x97S4\xc0'
p20
tp21
Rp22
F-inf
F-20.0
tp23
a(I100000
g1
(g5
S'\xd7\xa3p=\nW4\xc0'
p24
tp25
Rp26
g1
(g5
S'\xd7\xa3p=\nW4\xc0'
p27
tp28
Rp29
F-21.0
tp30
a(I110000
g1
(g5
S'\xecQ\xb8\x1e\x85k4\xc0'
p31
tp32
Rp33
g1
(g5
S'\x14\xaeG\xe1zT4\xc0'
p34
tp35
Rp36
F-21.0
tp37
a(I120000
g1
(g5
S'\xecQ\xb8\x1e\x85k4\xc0'
p38
tp39
Rp40
g36
F-21.0
tp41
a(I130000
g1
(g5
S'\xd7\xa3p=\nW4\xc0'
p42
tp43
Rp44
g36
F-21.0
tp45
a(I140000
g1
(g5
S'\x1f\x85\xebQ\xb8^4\xc0'
p46
tp47
Rp48
g1
(g5
S'R\xb8\x1e\x85\xebQ4\xc0'
p49
tp50
Rp51
F-21.0
tp52
a(I150000
g1
(g5
S'\x14\xaeG\xe1zT4\xc0'
p53
tp54
Rp55
g51
F-19.0
tp56
a(I160000
g1
(g5
S'\x9a\x99\x99\x99\x99Y4\xc0'
p57
tp58
Rp59
g51
F-21.0
tp60
a(I170000
g1
(g5
S'\x14\xaeG\xe1zT4\xc0'
p61
tp62
Rp63
g51
F-21.0
tp64
a(I180000
g1
(g5
S')\\\x8f\xc2\xf5h4\xc0'
p65
tp66
Rp67
g51
F-20.0
tp68
a(I190000
g1
(g5
S'\xecQ\xb8\x1e\x85k4\xc0'
p69
tp70
Rp71
g51
F-21.0
tp72
a(I200000
g1
(g5
S'\x1f\x85\xebQ\xb8^4\xc0'
p73
tp74
Rp75
g51
F-21.0
tp76
a(I210000
g1
(g5
S'\x9a\x99\x99\x99\x99Y4\xc0'
p77
tp78
Rp79
g51
F-21.0
tp80
a(I220000
g1
(g5
S'\xa4p=\n\xd7c4\xc0'
p81
tp82
Rp83
g51
F-20.0
tp84
a(I230000
g1
(g5
S'\xa4p=\n\xd7c4\xc0'
p85
tp86
Rp87
g51
F-21.0
tp88
a(I240000
g1
(g5
S'\\\x8f\xc2\xf5(\\4\xc0'
p89
tp90
Rp91
g51
F-18.0
tp92
a(I250000
g1
(g5
S'\xa4p=\n\xd7c4\xc0'
p93
tp94
Rp95
g51
F-20.0
tp96
a(I260000
g1
(g5
S')\\\x8f\xc2\xf5h4\xc0'
p97
tp98
Rp99
g51
F-21.0
tp100
a(I270000
g1
(g5
S'\xa4p=\n\xd7c4\xc0'
p101
tp102
Rp103
g51
F-19.0
tp104
a(I280000
g1
(g5
S'\x9a\x99\x99\x99\x99Y4\xc0'
p105
tp106
Rp107
g51
F-20.0
tp108
a(I290000
g1
(g5
S'\x14\xaeG\xe1zT4\xc0'
p109
tp110
Rp111
g1
(g5
S'\x8f\xc2\xf5(\\O4\xc0'
p112
tp113
Rp114
F-21.0
tp115
a(I300000
g1
(g5
S'\x9a\x99\x99\x99\x99Y4\xc0'
p116
tp117
Rp118
g114
F-21.0
tp119
a(I310000
g1
(g5
S'\x9a\x99\x99\x99\x99Y4\xc0'
p120
tp121
Rp122
g114
F-21.0
tp123
a(I320000
g1
(g5
S'R\xb8\x1e\x85\xebQ4\xc0'
p124
tp125
Rp126
g114
F-20.0
tp127
a(I330000
g1
(g5
S'H\xe1z\x14\xaeG4\xc0'
p128
tp129
Rp130
g1
(g5
S'\x85\xebQ\xb8\x1eE4\xc0'
p131
tp132
Rp133
F-21.0
tp134
a(I340000
g1
(g5
S'\x14\xaeG\xe1zT4\xc0'
p135
tp136
Rp137
g133
F-21.0
tp138
a(I350000
g1
(g5
S'\\\x8f\xc2\xf5(\\4\xc0'
p139
tp140
Rp141
g133
F-21.0
tp142
a(I360000
g1
(g5
S'\xd7\xa3p=\nW4\xc0'
p143
tp144
Rp145
g133
F-20.0
tp146
a(I370000
g1
(g5
S'\xa4p=\n\xd7c4\xc0'
p147
tp148
Rp149
g133
F-21.0
tp150
a(I380000
g1
(g5
S'ffffff4\xc0'
p151
tp152
Rp153
g133
F-21.0
tp154
a(I390000
g1
(g5
S'R\xb8\x1e\x85\xebQ4\xc0'
p155
tp156
Rp157
g133
F-20.0
tp158
a(I400000
g1
(g5
S'\x00\x00\x00\x00\x00@4\xc0'
p159
tp160
Rp161
g1
(g5
S'\x00\x00\x00\x00\x00@4\xc0'
p162
tp163
Rp164
F-20.0
tp165
a(I410000
g1
(g5
S'3333334\xc0'
p166
tp167
Rp168
g1
(g5
S'\xaeG\xe1z\x14.4\xc0'
p169
tp170
Rp171
F-20.0
tp172
a(I420000
g1
(g5
S'\\\x8f\xc2\xf5(\x1c4\xc0'
p173
tp174
Rp175
g1
(g5
S'\\\x8f\xc2\xf5(\x1c4\xc0'
p176
tp177
Rp178
F-20.0
tp179
a(I430000
g1
(g5
S'{\x14\xaeG\xe1\xfa3\xc0'
p180
tp181
Rp182
g1
(g5
S'{\x14\xaeG\xe1\xfa3\xc0'
p183
tp184
Rp185
F-19.0
tp186
a(I440000
g1
(g5
S'\xd7\xa3p=\n\xd73\xc0'
p187
tp188
Rp189
g1
(g5
S'\xd7\xa3p=\n\xd73\xc0'
p190
tp191
Rp192
F-18.0
tp193
a(I450000
g1
(g5
S'q=\n\xd7\xa3\xb03\xc0'
p194
tp195
Rp196
g1
(g5
S'q=\n\xd7\xa3\xb03\xc0'
p197
tp198
Rp199
F-18.0
tp200
a(I460000
g1
(g5
S'\xf6(\\\x8f\xc2u3\xc0'
p201
tp202
Rp203
g1
(g5
S'\xf6(\\\x8f\xc2u3\xc0'
p204
tp205
Rp206
F-18.0
tp207
a(I470000
g1
(g5
S'\xb8\x1e\x85\xebQ83\xc0'
p208
tp209
Rp210
g1
(g5
S'\xb8\x1e\x85\xebQ83\xc0'
p211
tp212
Rp213
F-15.0
tp214
a(I480000
g1
(g5
S'H\xe1z\x14\xae\x073\xc0'
p215
tp216
Rp217
g1
(g5
S'H\xe1z\x14\xae\x073\xc0'
p218
tp219
Rp220
F-16.0
tp221
a(I490000
g1
(g5
S'=\n\xd7\xa3p\xfd2\xc0'
p222
tp223
Rp224
g1
(g5
S'=\n\xd7\xa3p\xfd2\xc0'
p225
tp226
Rp227
F-18.0
tp228
a(I500000
g1
(g5
S'H\xe1z\x14\xae\xc72\xc0'
p229
tp230
Rp231
g1
(g5
S'H\xe1z\x14\xae\xc72\xc0'
p232
tp233
Rp234
F-17.0
tp235
a(I510000
g1
(g5
S'R\xb8\x1e\x85\xeb\x912\xc0'
p236
tp237
Rp238
g1
(g5
S'R\xb8\x1e\x85\xeb\x912\xc0'
p239
tp240
Rp241
F-17.0
tp242
a(I520000
g1
(g5
S'\xf6(\\\x8f\xc2u2\xc0'
p243
tp244
Rp245
g1
(g5
S'\xf6(\\\x8f\xc2u2\xc0'
p246
tp247
Rp248
F-18.0
tp249
a(I530000
g1
(g5
S'\x8f\xc2\xf5(\\O2\xc0'
p250
tp251
Rp252
g1
(g5
S'\x8f\xc2\xf5(\\O2\xc0'
p253
tp254
Rp255
F-18.0
tp256
a(I540000
g1
(g5
S'\xf6(\\\x8f\xc252\xc0'
p257
tp258
Rp259
g1
(g5
S'\xf6(\\\x8f\xc252\xc0'
p260
tp261
Rp262
F-18.0
tp263
a(I550000
g1
(g5
S'\x8f\xc2\xf5(\\\x0f2\xc0'
p264
tp265
Rp266
g1
(g5
S'\x8f\xc2\xf5(\\\x0f2\xc0'
p267
tp268
Rp269
F-20.0
tp270
a(I560000
g1
(g5
S')\\\x8f\xc2\xf5\xe81\xc0'
p271
tp272
Rp273
g1
(g5
S')\\\x8f\xc2\xf5\xe81\xc0'
p274
tp275
Rp276
F-14.0
tp277
a(I570000
g1
(g5
S'\xa4p=\n\xd7\xe31\xc0'
p278
tp279
Rp280
g1
(g5
S'\\\x8f\xc2\xf5(\xdc1\xc0'
p281
tp282
Rp283
F-16.0
tp284
a(I580000
g1
(g5
S'H\xe1z\x14\xae\xc71\xc0'
p285
tp286
Rp287
g1
(g5
S'\xc3\xf5(\\\x8f\xc21\xc0'
p288
tp289
Rp290
F-21.0
tp291
a(I590000
g1
(g5
S'33333\xb31\xc0'
p292
tp293
Rp294
g1
(g5
S'33333\xb31\xc0'
p295
tp296
Rp297
F-19.0
tp298
a(I600000
g1
(g5
S'\xe1z\x14\xaeG\xa11\xc0'
p299
tp300
Rp301
g1
(g5
S'\x1f\x85\xebQ\xb8\x9e1\xc0'
p302
tp303
Rp304
F-19.0
tp305
a(I610000
g1
(g5
S'\xc3\xf5(\\\x8f\x821\xc0'
p306
tp307
Rp308
g1
(g5
S'\xc3\xf5(\\\x8f\x821\xc0'
p309
tp310
Rp311
F-17.0
tp312
a(I620000
g1
(g5
S'\x85\xebQ\xb8\x1e\x851\xc0'
p313
tp314
Rp315
g1
(g5
S'{\x14\xaeG\xe1z1\xc0'
p316
tp317
Rp318
F-17.0
tp319
a(I630000
g1
(g5
S'\x85\xebQ\xb8\x1e\x851\xc0'
p320
tp321
Rp322
g1
(g5
S'\xb8\x1e\x85\xebQx1\xc0'
p323
tp324
Rp325
F-16.0
tp326
a(I640000
g1
(g5
S'\\\x8f\xc2\xf5(\\1\xc0'
p327
tp328
Rp329
g1
(g5
S'\\\x8f\xc2\xf5(\\1\xc0'
p330
tp331
Rp332
F-19.0
tp333
a(I650000
g1
(g5
S'R\xb8\x1e\x85\xebQ1\xc0'
p334
tp335
Rp336
g1
(g5
S'\xcd\xcc\xcc\xcc\xccL1\xc0'
p337
tp338
Rp339
F-19.0
tp340
a(I660000
g1
(g5
S'\x00\x00\x00\x00\x00@1\xc0'
p341
tp342
Rp343
g1
(g5
S'\x00\x00\x00\x00\x00@1\xc0'
p344
tp345
Rp346
F-16.0
tp347
a(I670000
g1
(g5
S'\xecQ\xb8\x1e\x85+1\xc0'
p348
tp349
Rp350
g1
(g5
S'\xecQ\xb8\x1e\x85+1\xc0'
p351
tp352
Rp353
F-15.0
tp354
a(I680000
g1
(g5
S'q=\n\xd7\xa301\xc0'
p355
tp356
Rp357
g1
(g5
S')\\\x8f\xc2\xf5(1\xc0'
p358
tp359
Rp360
F-20.0
tp361
a(I690000
g1
(g5
S'\x1f\x85\xebQ\xb8\x1e1\xc0'
p362
tp363
Rp364
g1
(g5
S'\x1f\x85\xebQ\xb8\x1e1\xc0'
p365
tp366
Rp367
F-14.0
tp368
a(I700000
g1
(g5
S'\x8f\xc2\xf5(\\\x0f1\xc0'
p369
tp370
Rp371
g1
(g5
S'\x8f\xc2\xf5(\\\x0f1\xc0'
p372
tp373
Rp374
F-16.0
tp375
a(I710000
g1
(g5
S'\n\xd7\xa3p=\n1\xc0'
p376
tp377
Rp378
g1
(g5
S'\x85\xebQ\xb8\x1e\x051\xc0'
p379
tp380
Rp381
F-17.0
tp382
a(I720000
g1
(g5
S'R\xb8\x1e\x85\xeb\xd10\xc0'
p383
tp384
Rp385
g1
(g5
S'R\xb8\x1e\x85\xeb\xd10\xc0'
p386
tp387
Rp388
F-8.0
tp389
a(I730000
g1
(g5
S'{\x14\xaeG\xe1\xba0\xc0'
p390
tp391
Rp392
g1
(g5
S'{\x14\xaeG\xe1\xba0\xc0'
p393
tp394
Rp395
F-17.0
tp396
a(I740000
g1
(g5
S'\xaeG\xe1z\x14\xae0\xc0'
p397
tp398
Rp399
g1
(g5
S'\xaeG\xe1z\x14\xae0\xc0'
p400
tp401
Rp402
F-15.0
tp403
a(I750000
g1
(g5
S'\xa4p=\n\xd7\xa30\xc0'
p404
tp405
Rp406
g1
(g5
S'\xa4p=\n\xd7\xa30\xc0'
p407
tp408
Rp409
F-16.0
tp410
a(I760000
g1
(g5
S'\xe1z\x14\xaeG\xa10\xc0'
p411
tp412
Rp413
g1
(g5
S'\x1f\x85\xebQ\xb8\x9e0\xc0'
p414
tp415
Rp416
F-18.0
tp417
a(I770000
g1
(g5
S'=\n\xd7\xa3p}0\xc0'
p418
tp419
Rp420
g1
(g5
S'=\n\xd7\xa3p}0\xc0'
p421
tp422
Rp423
F-15.0
tp424
a(I780000
g1
(g5
S'\xb8\x1e\x85\xebQx0\xc0'
p425
tp426
Rp427
g1
(g5
S'\xecQ\xb8\x1e\x85k0\xc0'
p428
tp429
Rp430
F-14.0
tp431
a(I790000
g1
(g5
S'\x14\xaeG\xe1zT0\xc0'
p432
tp433
Rp434
g1
(g5
S'\x14\xaeG\xe1zT0\xc0'
p435
tp436
Rp437
F-8.0
tp438
a(I800000
g1
(g5
S'\x14\xaeG\xe1zT0\xc0'
p439
tp440
Rp441
g1
(g5
S'\x8f\xc2\xf5(\\O0\xc0'
p442
tp443
Rp444
F-16.0
tp445
a(I810000
g1
(g5
S'H\xe1z\x14\xaeG0\xc0'
p446
tp447
Rp448
g1
(g5
S'H\xe1z\x14\xaeG0\xc0'
p449
tp450
Rp451
F-18.0
tp452
a(I820000
g1
(g5
S'3333330\xc0'
p453
tp454
Rp455
g1
(g5
S'3333330\xc0'
p456
tp457
Rp458
F-14.0
tp459
a(I830000
g1
(g5
S'\x85\xebQ\xb8\x1e\x050\xc0'
p460
tp461
Rp462
g1
(g5
S'\x85\xebQ\xb8\x1e\x050\xc0'
p463
tp464
Rp465
F-18.0
tp466
a(I840000
g1
(g5
S'\xa4p=\n\xd7\xa3/\xc0'
p467
tp468
Rp469
g1
(g5
S'\xa4p=\n\xd7\xa3/\xc0'
p470
tp471
Rp472
F-16.0
tp473
a(I850000
g1
(g5
S'\x9a\x99\x99\x99\x99\x99/\xc0'
p474
tp475
Rp476
g1
(g5
S'\x85\xebQ\xb8\x1e\x85/\xc0'
p477
tp478
Rp479
F-14.0
tp480
a(I860000
g1
(g5
S'\xb8\x1e\x85\xebQ8/\xc0'
p481
tp482
Rp483
g1
(g5
S'\xb8\x1e\x85\xebQ8/\xc0'
p484
tp485
Rp486
F-16.0
tp487
a(I870000
g1
(g5
S'\\\x8f\xc2\xf5(\xdc.\xc0'
p488
tp489
Rp490
g1
(g5
S'\\\x8f\xc2\xf5(\xdc.\xc0'
p491
tp492
Rp493
F-13.0
tp494
a(I880000
g1
(g5
S'ffffff.\xc0'
p495
tp496
Rp497
g1
(g5
S'ffffff.\xc0'
p498
tp499
Rp500
F-11.0
tp501
a(I890000
g1
(g5
S'q=\n\xd7\xa3\xf0-\xc0'
p502
tp503
Rp504
g1
(g5
S'q=\n\xd7\xa3\xf0-\xc0'
p505
tp506
Rp507
F-15.0
tp508
a(I900000
g1
(g5
S'\xb8\x1e\x85\xebQ\xb8-\xc0'
p509
tp510
Rp511
g1
(g5
S'\xb8\x1e\x85\xebQ\xb8-\xc0'
p512
tp513
Rp514
F-12.0
tp515
a(I910000
g1
(g5
S'\n\xd7\xa3p=\x8a-\xc0'
p516
tp517
Rp518
g1
(g5
S'\n\xd7\xa3p=\x8a-\xc0'
p519
tp520
Rp521
F-9.0
tp522
a(I920000
g1
(g5
S')\\\x8f\xc2\xf5(-\xc0'
p523
tp524
Rp525
g1
(g5
S')\\\x8f\xc2\xf5(-\xc0'
p526
tp527
Rp528
F-13.0
tp529
a(I930000
g1
(g5
S'\xecQ\xb8\x1e\x85\xeb,\xc0'
p530
tp531
Rp532
g1
(g5
S'\xecQ\xb8\x1e\x85\xeb,\xc0'
p533
tp534
Rp535
F-15.0
tp536
a(I940000
g1
(g5
S'\x00\x00\x00\x00\x00\x00-\xc0'
p537
tp538
Rp539
g535
F-10.0
tp540
a(I950000
g1
(g5
S'\xe1z\x14\xaeG\xe1,\xc0'
p541
tp542
Rp543
g1
(g5
S'\xe1z\x14\xaeG\xe1,\xc0'
p544
tp545
Rp546
F-13.0
tp547
a(I960000
g1
(g5
S'\\\x8f\xc2\xf5(\xdc,\xc0'
p548
tp549
Rp550
g1
(g5
S'\xcd\xcc\xcc\xcc\xcc\xcc,\xc0'
p551
tp552
Rp553
F-17.0
tp554
a(I970000
g1
(g5
S'\xf6(\\\x8f\xc2u,\xc0'
p555
tp556
Rp557
g1
(g5
S'\xf6(\\\x8f\xc2u,\xc0'
p558
tp559
Rp560
F-13.0
tp561
a(I980000
g1
(g5
S'\n\xd7\xa3p=\n,\xc0'
p562
tp563
Rp564
g1
(g5
S'\n\xd7\xa3p=\n,\xc0'
p565
tp566
Rp567
F-10.0
tp568
a(I990000
g1
(g5
S'\xa4p=\n\xd7\xa3+\xc0'
p569
tp570
Rp571
g1
(g5
S'\xa4p=\n\xd7\xa3+\xc0'
p572
tp573
Rp574
F-17.0
tp575
a(I1000000
g1
(g5
S'{\x14\xaeG\xe1z+\xc0'
p576
tp577
Rp578
g1
(g5
S'{\x14\xaeG\xe1z+\xc0'
p579
tp580
Rp581
F-14.0
tp582
a(I1010000
g1
(g5
S'\xd7\xa3p=\nW+\xc0'
p583
tp584
Rp585
g1
(g5
S'\xd7\xa3p=\nW+\xc0'
p586
tp587
Rp588
F-14.0
tp589
a(I1020000
g1
(g5
S'333333+\xc0'
p590
tp591
Rp592
g1
(g5
S'\x1f\x85\xebQ\xb8\x1e+\xc0'
p593
tp594
Rp595
F-16.0
tp596
a(I1030000
g1
(g5
S'ffffff+\xc0'
p597
tp598
Rp599
g595
F-15.0
tp600
a(I1040000
g1
(g5
S'R\xb8\x1e\x85\xeb\xd1*\xc0'
p601
tp602
Rp603
g1
(g5
S'R\xb8\x1e\x85\xeb\xd1*\xc0'
p604
tp605
Rp606
F-4.0
tp607
a(I1050000
g1
(g5
S'\xf6(\\\x8f\xc2u*\xc0'
p608
tp609
Rp610
g1
(g5
S'\xf6(\\\x8f\xc2u*\xc0'
p611
tp612
Rp613
F-8.0
tp614
a(I1060000
g1
(g5
S'\x14\xaeG\xe1z\x94)\xc0'
p615
tp616
Rp617
g1
(g5
S'\x14\xaeG\xe1z\x94)\xc0'
p618
tp619
Rp620
F-5.0
tp621
a(I1070000
g1
(g5
S'\x14\xaeG\xe1z\x14)\xc0'
p622
tp623
Rp624
g1
(g5
S'\x14\xaeG\xe1z\x14)\xc0'
p625
tp626
Rp627
F-6.0
tp628
a(I1080000
g1
(g5
S'\x85\xebQ\xb8\x1e\x05)\xc0'
p629
tp630
Rp631
g1
(g5
S'\x85\xebQ\xb8\x1e\x05)\xc0'
p632
tp633
Rp634
F-10.0
tp635
a(I1090000
g1
(g5
S'\xa4p=\n\xd7\xa3(\xc0'
p636
tp637
Rp638
g1
(g5
S'\xa4p=\n\xd7\xa3(\xc0'
p639
tp640
Rp641
F-16.0
tp642
a(I1100000
g1
(g5
S'\\\x8f\xc2\xf5(\\(\xc0'
p643
tp644
Rp645
g1
(g5
S'\\\x8f\xc2\xf5(\\(\xc0'
p646
tp647
Rp648
F-3.0
tp649
a(I1110000
g1
(g5
S"\xe1z\x14\xaeG\xe1'\xc0"
p650
tp651
Rp652
g1
(g5
S"\xe1z\x14\xaeG\xe1'\xc0"
p653
tp654
Rp655
F-5.0
tp656
a(I1120000
g1
(g5
S"\xc3\xf5(\\\x8fB'\xc0"
p657
tp658
Rp659
g1
(g5
S"\xc3\xf5(\\\x8fB'\xc0"
p660
tp661
Rp662
F2.0
tp663
a(I1130000
g1
(g5
S'\xd7\xa3p=\n\xd7&\xc0'
p664
tp665
Rp666
g1
(g5
S'\xd7\xa3p=\n\xd7&\xc0'
p667
tp668
Rp669
F-7.0
tp670
a(I1140000
g1
(g5
S'\\\x8f\xc2\xf5(\\&\xc0'
p671
tp672
Rp673
g1
(g5
S'\\\x8f\xc2\xf5(\\&\xc0'
p674
tp675
Rp676
F-3.0
tp677
a(I1150000
g1
(g5
S'H\xe1z\x14\xae\xc7%\xc0'
p678
tp679
Rp680
g1
(g5
S'H\xe1z\x14\xae\xc7%\xc0'
p681
tp682
Rp683
F1.0
tp684
a(I1160000
g1
(g5
S'\xecQ\xb8\x1e\x85k%\xc0'
p685
tp686
Rp687
g1
(g5
S'\xecQ\xb8\x1e\x85k%\xc0'
p688
tp689
Rp690
F-5.0
tp691
a(I1170000
g1
(g5
S'\xf6(\\\x8f\xc2\xf5$\xc0'
p692
tp693
Rp694
g1
(g5
S'\xf6(\\\x8f\xc2\xf5$\xc0'
p695
tp696
Rp697
F1.0
tp698
a(I1180000
g1
(g5
S'\x14\xaeG\xe1z\x94$\xc0'
p699
tp700
Rp701
g1
(g5
S'\x14\xaeG\xe1z\x94$\xc0'
p702
tp703
Rp704
F-3.0
tp705
a(I1190000
g1
(g5
S'H\xe1z\x14\xaeG$\xc0'
p706
tp707
Rp708
g1
(g5
S'H\xe1z\x14\xaeG$\xc0'
p709
tp710
Rp711
F-9.0
tp712
a(I1200000
g1
(g5
S'\xe1z\x14\xaeG\xe1#\xc0'
p713
tp714
Rp715
g1
(g5
S'\\\x8f\xc2\xf5(\xdc#\xc0'
p716
tp717
Rp718
F-7.0
tp719
a(I1210000
g1
(g5
S'{\x14\xaeG\xe1z#\xc0'
p720
tp721
Rp722
g1
(g5
S'{\x14\xaeG\xe1z#\xc0'
p723
tp724
Rp725
F-8.0
tp726
a(I1220000
g1
(g5
S'q=\n\xd7\xa3\xf0"\xc0'
p727
tp728
Rp729
g1
(g5
S'q=\n\xd7\xa3\xf0"\xc0'
p730
tp731
Rp732
F-8.0
tp733
a(I1230000
g1
(g5
S'\x00\x00\x00\x00\x00\x80"\xc0'
p734
tp735
Rp736
g1
(g5
S'\x00\x00\x00\x00\x00\x80"\xc0'
p737
tp738
Rp739
F-6.0
tp740
a(I1240000
g1
(g5
S'\xecQ\xb8\x1e\x85\xeb!\xc0'
p741
tp742
Rp743
g1
(g5
S'\xecQ\xb8\x1e\x85\xeb!\xc0'
p744
tp745
Rp746
F-2.0
tp747
a(I1250000
g1
(g5
S'R\xb8\x1e\x85\xebQ!\xc0'
p748
tp749
Rp750
g1
(g5
S'R\xb8\x1e\x85\xebQ!\xc0'
p751
tp752
Rp753
F-4.0
tp754
a(I1260000
g1
(g5
S'\\\x8f\xc2\xf5(\xdc \xc0'
p755
tp756
Rp757
g1
(g5
S'\\\x8f\xc2\xf5(\xdc \xc0'
p758
tp759
Rp760
F-11.0
tp761
a(I1270000
g1
(g5
S'\xcd\xcc\xcc\xcc\xccL \xc0'
p762
tp763
Rp764
g1
(g5
S'\xcd\xcc\xcc\xcc\xccL \xc0'
p765
tp766
Rp767
F-9.0
tp768
a(I1280000
g1
(g5
S'\xc3\xf5(\\\x8f\xc2\x1f\xc0'
p769
tp770
Rp771
g1
(g5
S'\xc3\xf5(\\\x8f\xc2\x1f\xc0'
p772
tp773
Rp774
F-3.0
tp775
a(I1290000
g1
(g5
S'\xc3\xf5(\\\x8f\xc2\x1e\xc0'
p776
tp777
Rp778
g1
(g5
S'\xc3\xf5(\\\x8f\xc2\x1e\xc0'
p779
tp780
Rp781
F-4.0
tp782
a(I1300000
g1
(g5
S'H\xe1z\x14\xaeG\x1e\xc0'
p783
tp784
Rp785
g1
(g5
S'H\xe1z\x14\xaeG\x1e\xc0'
p786
tp787
Rp788
F-2.0
tp789
a(I1310000
g1
(g5
S'\\\x8f\xc2\xf5(\\\x1d\xc0'
p790
tp791
Rp792
g1
(g5
S'\\\x8f\xc2\xf5(\\\x1d\xc0'
p793
tp794
Rp795
F-6.0
tp796
a(I1320000
g1
(g5
S'333333\x1c\xc0'
p797
tp798
Rp799
g1
(g5
S'333333\x1c\xc0'
p800
tp801
Rp802
F-2.0
tp803
a(I1330000
g1
(g5
S'q=\n\xd7\xa3p\x1b\xc0'
p804
tp805
Rp806
g1
(g5
S'q=\n\xd7\xa3p\x1b\xc0'
p807
tp808
Rp809
F-9.0
tp810
a(I1340000
g1
(g5
S'ffffff\x1a\xc0'
p811
tp812
Rp813
g1
(g5
S'ffffff\x1a\xc0'
p814
tp815
Rp816
F-7.0
tp817
a(I1350000
g1
(g5
S'\x8f\xc2\xf5(\\\x8f\x19\xc0'
p818
tp819
Rp820
g1
(g5
S'\x8f\xc2\xf5(\\\x8f\x19\xc0'
p821
tp822
Rp823
F-3.0
tp824
a(I1360000
g1
(g5
S'\xaeG\xe1z\x14\xae\x18\xc0'
p825
tp826
Rp827
g1
(g5
S'\xaeG\xe1z\x14\xae\x18\xc0'
p828
tp829
Rp830
F-6.0
tp831
a(I1370000
g1
(g5
S'\xaeG\xe1z\x14\xae\x17\xc0'
p832
tp833
Rp834
g1
(g5
S'\xaeG\xe1z\x14\xae\x17\xc0'
p835
tp836
Rp837
F-3.0
tp838
a(I1380000
g1
(g5
S'\xf6(\\\x8f\xc2\xf5\x16\xc0'
p839
tp840
Rp841
g1
(g5
S'\xf6(\\\x8f\xc2\xf5\x16\xc0'
p842
tp843
Rp844
F-3.0
tp845
a(I1390000
g1
(g5
S'\x85\xebQ\xb8\x1e\x85\x16\xc0'
p846
tp847
Rp848
g1
(g5
S'\x85\xebQ\xb8\x1e\x85\x16\xc0'
p849
tp850
Rp851
F-3.0
tp852
a(I1400000
g1
(g5
S'\xcd\xcc\xcc\xcc\xcc\xcc\x16\xc0'
p853
tp854
Rp855
g1
(g5
S'ffffff\x16\xc0'
p856
tp857
Rp858
F-7.0
tp859
a(I1410000
g1
(g5
S'q=\n\xd7\xa3p\x16\xc0'
p860
tp861
Rp862
g858
F-7.0
tp863
a(I1420000
g1
(g5
S'\xaeG\xe1z\x14\xae\x15\xc0'
p864
tp865
Rp866
g1
(g5
S'\xaeG\xe1z\x14\xae\x15\xc0'
p867
tp868
Rp869
F-5.0
tp870
a(I1430000
g1
(g5
S'R\xb8\x1e\x85\xebQ\x14\xc0'
p871
tp872
Rp873
g1
(g5
S'R\xb8\x1e\x85\xebQ\x14\xc0'
p874
tp875
Rp876
F9.0
tp877
a(I1440000
g1
(g5
S'\\\x8f\xc2\xf5(\\\x13\xc0'
p878
tp879
Rp880
g1
(g5
S'\\\x8f\xc2\xf5(\\\x13\xc0'
p881
tp882
Rp883
F-1.0
tp884
a(I1450000
g1
(g5
S'\x9a\x99\x99\x99\x99\x99\x12\xc0'
p885
tp886
Rp887
g1
(g5
S'\x9a\x99\x99\x99\x99\x99\x12\xc0'
p888
tp889
Rp890
F2.0
tp891
a(I1460000
g1
(g5
S'H\xe1z\x14\xaeG\x12\xc0'
p892
tp893
Rp894
g1
(g5
S'\n\xd7\xa3p=\n\x12\xc0'
p895
tp896
Rp897
F-14.0
tp898
a(I1470000
g1
(g5
S'\xa4p=\n\xd7\xa3\x11\xc0'
p899
tp900
Rp901
g1
(g5
S'\xa4p=\n\xd7\xa3\x11\xc0'
p902
tp903
Rp904
F-5.0
tp905
a(I1480000
g1
(g5
S'{\x14\xaeG\xe1z\x11\xc0'
p906
tp907
Rp908
g1
(g5
S'{\x14\xaeG\xe1z\x11\xc0'
p909
tp910
Rp911
F-1.0
tp912
a(I1490000
g1
(g5
S'\x00\x00\x00\x00\x00\x00\x12\xc0'
p913
tp914
Rp915
g911
F-5.0
tp916
a(I1500000
g1
(g5
S'\x00\x00\x00\x00\x00\x00\x11\xc0'
p917
tp918
Rp919
g1
(g5
S'\x00\x00\x00\x00\x00\x00\x11\xc0'
p920
tp921
Rp922
F4.0
tp923
a(I1510000
g1
(g5
S'\xd7\xa3p=\n\xd7\x0f\xc0'
p924
tp925
Rp926
g1
(g5
S'\xd7\xa3p=\n\xd7\x0f\xc0'
p927
tp928
Rp929
F6.0
tp930
a(I1520000
g1
(g5
S'\xd7\xa3p=\n\xd7\x0f\xc0'
p931
tp932
Rp933
g929
F1.0
tp934
a(I1530000
g1
(g5
S'R\xb8\x1e\x85\xebQ\x0e\xc0'
p935
tp936
Rp937
g1
(g5
S'R\xb8\x1e\x85\xebQ\x0e\xc0'
p938
tp939
Rp940
F3.0
tp941
a(I1540000
g1
(g5
S'=\n\xd7\xa3p=\x0e\xc0'
p942
tp943
Rp944
g1
(g5
S'=\n\xd7\xa3p=\x0e\xc0'
p945
tp946
Rp947
F-5.0
tp948
a(I1550000
g1
(g5
S'\xd7\xa3p=\n\xd7\x0b\xc0'
p949
tp950
Rp951
g1
(g5
S'\xd7\xa3p=\n\xd7\x0b\xc0'
p952
tp953
Rp954
F7.0
tp955
a(I1560000
g1
(g5
S'q=\n\xd7\xa3p\x0b\xc0'
p956
tp957
Rp958
g1
(g5
S'q=\n\xd7\xa3p\x0b\xc0'
p959
tp960
Rp961
F-5.0
tp962
a(I1570000
g1
(g5
S'{\x14\xaeG\xe1z\n\xc0'
p963
tp964
Rp965
g1
(g5
S'\xecQ\xb8\x1e\x85\xeb\t\xc0'
p966
tp967
Rp968
F-3.0
tp969
a(I1580000
g1
(g5
S'R\xb8\x1e\x85\xebQ\x08\xc0'
p970
tp971
Rp972
g1
(g5
S'R\xb8\x1e\x85\xebQ\x08\xc0'
p973
tp974
Rp975
F4.0
tp976
a(I1590000
g1
(g5
S'\n\xd7\xa3p=\n\x07\xc0'
p977
tp978
Rp979
g1
(g5
S'\n\xd7\xa3p=\n\x07\xc0'
p980
tp981
Rp982
F2.0
tp983
a(I1600000
g1
(g5
S'q=\n\xd7\xa3p\x05\xc0'
p984
tp985
Rp986
g1
(g5
S'q=\n\xd7\xa3p\x05\xc0'
p987
tp988
Rp989
F7.0
tp990
a(I1610000
g1
(g5
S')\\\x8f\xc2\xf5(\x02\xc0'
p991
tp992
Rp993
g1
(g5
S')\\\x8f\xc2\xf5(\x02\xc0'
p994
tp995
Rp996
F12.0
tp997
a(I1620000
g1
(g5
S'\n\xd7\xa3p=\n\xff\xbf'
p998
tp999
Rp1000
g1
(g5
S'\n\xd7\xa3p=\n\xff\xbf'
p1001
tp1002
Rp1003
F-2.0
tp1004
a(I1630000
g1
(g5
S')\\\x8f\xc2\xf5(\xfc\xbf'
p1005
tp1006
Rp1007
g1
(g5
S')\\\x8f\xc2\xf5(\xfc\xbf'
p1008
tp1009
Rp1010
F9.0
tp1011
a(I1640000
g1
(g5
S'\xc3\xf5(\\\x8f\xc2\xf9\xbf'
p1012
tp1013
Rp1014
g1
(g5
S'\xc3\xf5(\\\x8f\xc2\xf9\xbf'
p1015
tp1016
Rp1017
F2.0
tp1018
a(I1650000
g1
(g5
S'\xaeG\xe1z\x14\xae\xf3\xbf'
p1019
tp1020
Rp1021
g1
(g5
S'\xaeG\xe1z\x14\xae\xf3\xbf'
p1022
tp1023
Rp1024
F4.0
tp1025
a(I1660000
g1
(g5
S'q=\n\xd7\xa3p\xf1\xbf'
p1026
tp1027
Rp1028
g1
(g5
S'q=\n\xd7\xa3p\xf1\xbf'
p1029
tp1030
Rp1031
F2.0
tp1032
a(I1670000
g1
(g5
S'\xecQ\xb8\x1e\x85\xeb\xe9\xbf'
p1033
tp1034
Rp1035
g1
(g5
S'\xecQ\xb8\x1e\x85\xeb\xe9\xbf'
p1036
tp1037
Rp1038
F5.0
tp1039
a(I1680000
g1
(g5
S'\xd7\xa3p=\n\xd7\xe3\xbf'
p1040
tp1041
Rp1042
g1
(g5
S'\xd7\xa3p=\n\xd7\xe3\xbf'
p1043
tp1044
Rp1045
F6.0
tp1046
a(I1690000
g1
(g5
S'ffffff\xd6\xbf'
p1047
tp1048
Rp1049
g1
(g5
S'ffffff\xd6\xbf'
p1050
tp1051
Rp1052
F3.0
tp1053
a(I1700000
g1
(g5
S'\xecQ\xb8\x1e\x85\xeb\xb1\xbf'
p1054
tp1055
Rp1056
g1
(g5
S'\xecQ\xb8\x1e\x85\xeb\xb1\xbf'
p1057
tp1058
Rp1059
F8.0
tp1060
a(I1710000
g1
(g5
S'\xc3\xf5(\\\x8f\xc2\xd5?'
p1061
tp1062
Rp1063
g1
(g5
S'\xc3\xf5(\\\x8f\xc2\xd5?'
p1064
tp1065
Rp1066
F6.0
tp1067
a(I1720000
g1
(g5
S'\xe1z\x14\xaeG\xe1\xda?'
p1068
tp1069
Rp1070
g1
(g5
S'\x85\xebQ\xb8\x1e\x85\xdb?'
p1071
tp1072
Rp1073
F-6.0
tp1074
a(I1730000
g1
(g5
S'=\n\xd7\xa3p=\xda?'
p1075
tp1076
Rp1077
g1
(g5
S'\xb8\x1e\x85\xebQ\xb8\xde?'
p1078
tp1079
Rp1080
F-14.0
tp1081
a(I1740000
g1
(g5
S'R\xb8\x1e\x85\xebQ\xe0?'
p1082
tp1083
Rp1084
g1
(g5
S'R\xb8\x1e\x85\xebQ\xe0?'
p1085
tp1086
Rp1087
F6.0
tp1088
a(I1750000
g1
(g5
S'\xc3\xf5(\\\x8f\xc2\xed?'
p1089
tp1090
Rp1091
g1
(g5
S'\xc3\xf5(\\\x8f\xc2\xed?'
p1092
tp1093
Rp1094
F9.0
tp1095
a(I1760000
g1
(g5
S'\xd7\xa3p=\n\xd7\xf3?'
p1096
tp1097
Rp1098
g1
(g5
S'\xd7\xa3p=\n\xd7\xf3?'
p1099
tp1100
Rp1101
F8.0
tp1102
a(I1770000
g1
(g5
S'q=\n\xd7\xa3p\xfd?'
p1103
tp1104
Rp1105
g1
(g5
S'q=\n\xd7\xa3p\xfd?'
p1106
tp1107
Rp1108
F9.0
tp1109
a(I1780000
g1
(g5
S')\\\x8f\xc2\xf5(\x02@'
p1110
tp1111
Rp1112
g1
(g5
S')\\\x8f\xc2\xf5(\x02@'
p1113
tp1114
Rp1115
F11.0
tp1116
a(I1790000
g1
(g5
S'\xb8\x1e\x85\xebQ\xb8\x04@'
p1117
tp1118
Rp1119
g1
(g5
S'\xb8\x1e\x85\xebQ\xb8\x04@'
p1120
tp1121
Rp1122
F12.0
tp1123
a(I1800000
g1
(g5
S'\xaeG\xe1z\x14\xae\x05@'
p1124
tp1125
Rp1126
g1
(g5
S'\x00\x00\x00\x00\x00\x00\x06@'
p1127
tp1128
Rp1129
F5.0
tp1130
a(I1810000
g1
(g5
S')\\\x8f\xc2\xf5(\x08@'
p1131
tp1132
Rp1133
g1
(g5
S')\\\x8f\xc2\xf5(\x08@'
p1134
tp1135
Rp1136
F16.0
tp1137
a(I1820000
g1
(g5
S'\xcd\xcc\xcc\xcc\xcc\xcc\n@'
p1138
tp1139
Rp1140
g1
(g5
S'\xf6(\\\x8f\xc2\xf5\n@'
p1141
tp1142
Rp1143
F-4.0
tp1144
a(I1830000
g1
(g5
S'\x1f\x85\xebQ\xb8\x1e\x0f@'
p1145
tp1146
Rp1147
g1
(g5
S'\x1f\x85\xebQ\xb8\x1e\x0f@'
p1148
tp1149
Rp1150
F13.0
tp1151
a(I1840000
g1
(g5
S'=\n\xd7\xa3p=\x12@'
p1152
tp1153
Rp1154
g1
(g5
S'=\n\xd7\xa3p=\x12@'
p1155
tp1156
Rp1157
F13.0
tp1158
a(I1850000
g1
(g5
S'\xaeG\xe1z\x14\xae\x12@'
p1159
tp1160
Rp1161
g1
(g5
S'\xe1z\x14\xaeG\xe1\x12@'
p1162
tp1163
Rp1164
F6.0
tp1165
a(I1860000
g1
(g5
S'\x9a\x99\x99\x99\x99\x99\x13@'
p1166
tp1167
Rp1168
g1
(g5
S'\x9a\x99\x99\x99\x99\x99\x13@'
p1169
tp1170
Rp1171
F5.0
tp1172
a(I1870000
g1
(g5
S'\xa4p=\n\xd7\xa3\x13@'
p1173
tp1174
Rp1175
g1
(g5
S'\xa4p=\n\xd7\xa3\x13@'
p1176
tp1177
Rp1178
F15.0
tp1179
a(I1880000
g1
(g5
S'\xd7\xa3p=\n\xd7\x14@'
p1180
tp1181
Rp1182
g1
(g5
S'\xd7\xa3p=\n\xd7\x14@'
p1183
tp1184
Rp1185
F12.0
tp1186
a(I1890000
g1
(g5
S'R\xb8\x1e\x85\xebQ\x18@'
p1187
tp1188
Rp1189
g1
(g5
S'R\xb8\x1e\x85\xebQ\x18@'
p1190
tp1191
Rp1192
F20.0
tp1193
a(I1900000
g1
(g5
S'\xa4p=\n\xd7\xa3\x19@'
p1194
tp1195
Rp1196
g1
(g5
S'\xa4p=\n\xd7\xa3\x19@'
p1197
tp1198
Rp1199
F8.0
tp1200
a(I1910000
g1
(g5
S'\x1f\x85\xebQ\xb8\x1e\x1b@'
p1201
tp1202
Rp1203
g1
(g5
S'\x1f\x85\xebQ\xb8\x1e\x1b@'
p1204
tp1205
Rp1206
F11.0
tp1207
a(I1920000
g1
(g5
S')\\\x8f\xc2\xf5(\x1d@'
p1208
tp1209
Rp1210
g1
(g5
S')\\\x8f\xc2\xf5(\x1d@'
p1211
tp1212
Rp1213
F13.0
tp1214
a(I1930000
g1
(g5
S'\\\x8f\xc2\xf5(\\\x1d@'
p1215
tp1216
Rp1217
g1
(g5
S'\\\x8f\xc2\xf5(\\\x1d@'
p1218
tp1219
Rp1220
F17.0
tp1221
a(I1940000
g1
(g5
S'\x85\xebQ\xb8\x1e\x05 @'
p1222
tp1223
Rp1224
g1
(g5
S'\x85\xebQ\xb8\x1e\x05 @'
p1225
tp1226
Rp1227
F16.0
tp1228
a(I1950000
g1
(g5
S'\x9a\x99\x99\x99\x99\x99 @'
p1229
tp1230
Rp1231
g1
(g5
S'\x9a\x99\x99\x99\x99\x99 @'
p1232
tp1233
Rp1234
F8.0
tp1235
a(I1960000
g1
(g5
S'\xecQ\xb8\x1e\x85\xeb @'
p1236
tp1237
Rp1238
g1
(g5
S'\xecQ\xb8\x1e\x85\xeb @'
p1239
tp1240
Rp1241
F14.0
tp1242
a(I1970000
g1
(g5
S'\xc3\xf5(\\\x8f\xc2!@'
p1243
tp1244
Rp1245
g1
(g5
S'\xc3\xf5(\\\x8f\xc2!@'
p1246
tp1247
Rp1248
F16.0
tp1249
a(I1980000
g1
(g5
S'=\n\xd7\xa3p=#@'
p1250
tp1251
Rp1252
g1
(g5
S'=\n\xd7\xa3p=#@'
p1253
tp1254
Rp1255
F14.0
tp1256
a(I1990000
g1
(g5
S'R\xb8\x1e\x85\xebQ$@'
p1257
tp1258
Rp1259
g1
(g5
S'R\xb8\x1e\x85\xebQ$@'
p1260
tp1261
Rp1262
F16.0
tp1263
a(I2000000
g1
(g5
S'\xe1z\x14\xaeGa%@'
p1264
tp1265
Rp1266
g1
(g5
S'\xe1z\x14\xaeGa%@'
p1267
tp1268
Rp1269
F14.0
tp1270
a(I2010000
g1
(g5
S'\n\xd7\xa3p=\n&@'
p1271
tp1272
Rp1273
g1
(g5
S'\n\xd7\xa3p=\n&@'
p1274
tp1275
Rp1276
F18.0
tp1277
a(I2020000
g1
(g5
S'\\\x8f\xc2\xf5(\\&@'
p1278
tp1279
Rp1280
g1
(g5
S'\\\x8f\xc2\xf5(\\&@'
p1281
tp1282
Rp1283
F15.0
tp1284
a(I2030000
g1
(g5
S"\xb8\x1e\x85\xebQ8'@"
p1285
tp1286
Rp1287
g1
(g5
S"\xb8\x1e\x85\xebQ8'@"
p1288
tp1289
Rp1290
F17.0
tp1291
a(I2040000
g1
(g5
S'\x8f\xc2\xf5(\\\x0f(@'
p1292
tp1293
Rp1294
g1
(g5
S'\x8f\xc2\xf5(\\\x0f(@'
p1295
tp1296
Rp1297
F18.0
tp1298
a(I2050000
g1
(g5
S'\x9a\x99\x99\x99\x99\x99(@'
p1299
tp1300
Rp1301
g1
(g5
S'\x9a\x99\x99\x99\x99\x99(@'
p1302
tp1303
Rp1304
F17.0
tp1305
a(I2060000
g1
(g5
S'\n\xd7\xa3p=\n)@'
p1306
tp1307
Rp1308
g1
(g5
S'\x9a\x99\x99\x99\x99\x19)@'
p1309
tp1310
Rp1311
F14.0
tp1312
a(I2070000
g1
(g5
S'{\x14\xaeG\xe1\xfa)@'
p1313
tp1314
Rp1315
g1
(g5
S'{\x14\xaeG\xe1\xfa)@'
p1316
tp1317
Rp1318
F19.0
tp1319
a(I2080000
g1
(g5
S'\xa4p=\n\xd7#*@'
p1320
tp1321
Rp1322
g1
(g5
S'\xa4p=\n\xd7#*@'
p1323
tp1324
Rp1325
F15.0
tp1326
a(I2090000
g1
(g5
S'\xecQ\xb8\x1e\x85\xeb*@'
p1327
tp1328
Rp1329
g1
(g5
S'\xecQ\xb8\x1e\x85\xeb*@'
p1330
tp1331
Rp1332
F16.0
tp1333
a(I2100000
g1
(g5
S'\xaeG\xe1z\x14\xae+@'
p1334
tp1335
Rp1336
g1
(g5
S'\xb8\x1e\x85\xebQ\xb8+@'
p1337
tp1338
Rp1339
F12.0
tp1340
a(I2110000
g1
(g5
S'=\n\xd7\xa3p=,@'
p1341
tp1342
Rp1343
g1
(g5
S'=\n\xd7\xa3p=,@'
p1344
tp1345
Rp1346
F18.0
tp1347
a(I2120000
g1
(g5
S'\xcd\xcc\xcc\xcc\xccL,@'
p1348
tp1349
Rp1350
g1
(g5
S'R\xb8\x1e\x85\xebQ,@'
p1351
tp1352
Rp1353
F18.0
tp1354
a(I2130000
g1
(g5
S'q=\n\xd7\xa3\xf0,@'
p1355
tp1356
Rp1357
g1
(g5
S'\x85\xebQ\xb8\x1e\x05-@'
p1358
tp1359
Rp1360
F14.0
tp1361
a(I2140000
g1
(g5
S'H\xe1z\x14\xaeG-@'
p1362
tp1363
Rp1364
g1
(g5
S'H\xe1z\x14\xaeG-@'
p1365
tp1366
Rp1367
F17.0
tp1368
a(I2150000
g1
(g5
S'\xa4p=\n\xd7#.@'
p1369
tp1370
Rp1371
g1
(g5
S'\xa4p=\n\xd7#.@'
p1372
tp1373
Rp1374
F13.0
tp1375
a(I2160000
g1
(g5
S'\xecQ\xb8\x1e\x85k.@'
p1376
tp1377
Rp1378
g1
(g5
S'q=\n\xd7\xa3p.@'
p1379
tp1380
Rp1381
F17.0
tp1382
a(I2170000
g1
(g5
S'\x9a\x99\x99\x99\x99\x99.@'
p1383
tp1384
Rp1385
g1
(g5
S'\x9a\x99\x99\x99\x99\x99.@'
p1386
tp1387
Rp1388
F19.0
tp1389
a(I2180000
g1
(g5
S'R\xb8\x1e\x85\xebQ.@'
p1390
tp1391
Rp1392
g1388
F17.0
tp1393
a(I2190000
g1
(g5
S'\n\xd7\xa3p=\x8a.@'
p1394
tp1395
Rp1396
g1388
F16.0
tp1397
a(I2200000
g1
(g5
S'\x8f\xc2\xf5(\\\x0f.@'
p1398
tp1399
Rp1400
g1388
F21.0
tp1401
a(I2210000
g1
(g5
S'33333\xb3.@'
p1402
tp1403
Rp1404
g1
(g5
S'33333\xb3.@'
p1405
tp1406
Rp1407
F17.0
tp1408
a(I2220000
g1
(g5
S'\xd7\xa3p=\n\xd7.@'
p1409
tp1410
Rp1411
g1
(g5
S'\xd7\xa3p=\n\xd7.@'
p1412
tp1413
Rp1414
F17.0
tp1415
a(I2230000
g1
(g5
S'\xb8\x1e\x85\xebQ8/@'
p1416
tp1417
Rp1418
g1
(g5
S'\xcd\xcc\xcc\xcc\xccL/@'
p1419
tp1420
Rp1421
F18.0
tp1422
a(I2240000
g1
(g5
S'\xf6(\\\x8f\xc2u/@'
p1423
tp1424
Rp1425
g1
(g5
S'\xf6(\\\x8f\xc2u/@'
p1426
tp1427
Rp1428
F18.0
tp1429
a(I2250000
g1
(g5
S'\x1f\x85\xebQ\xb8\x9e/@'
p1430
tp1431
Rp1432
g1
(g5
S')\\\x8f\xc2\xf5\xa8/@'
p1433
tp1434
Rp1435
F16.0
tp1436
a(I2260000
g1
(g5
S'\xaeG\xe1z\x14\xae/@'
p1437
tp1438
Rp1439
g1
(g5
S'=\n\xd7\xa3p\xbd/@'
p1440
tp1441
Rp1442
F16.0
tp1443
a(I2270000
g1
(g5
S'\x8f\xc2\xf5(\\\x8f/@'
p1444
tp1445
Rp1446
g1442
F17.0
tp1447
a(I2280000
g1
(g5
S'\\\x8f\xc2\xf5(\xdc/@'
p1448
tp1449
Rp1450
g1
(g5
S'\xe1z\x14\xaeG\xe1/@'
p1451
tp1452
Rp1453
F19.0
tp1454
a(I2290000
g1
(g5
S'\x00\x00\x00\x00\x00\x000@'
p1455
tp1456
Rp1457
g1
(g5
S'\x00\x00\x00\x00\x00\x000@'
p1458
tp1459
Rp1460
F19.0
tp1461
a(I2300000
g1
(g5
S'fffff&0@'
p1462
tp1463
Rp1464
g1
(g5
S'fffff&0@'
p1465
tp1466
Rp1467
F17.0
tp1468
a(I2310000
g1
(g5
S')\\\x8f\xc2\xf5(0@'
p1469
tp1470
Rp1471
g1
(g5
S')\\\x8f\xc2\xf5(0@'
p1472
tp1473
Rp1474
F18.0
tp1475
a(I2320000
g1
(g5
S'\xe1z\x14\xaeG\xa10@'
p1476
tp1477
Rp1478
g1
(g5
S'\xe1z\x14\xaeG\xa10@'
p1479
tp1480
Rp1481
F21.0
tp1482
a(I2330000
g1
(g5
S'fffff\xa60@'
p1483
tp1484
Rp1485
g1
(g5
S'\xecQ\xb8\x1e\x85\xab0@'
p1486
tp1487
Rp1488
F18.0
tp1489
a(I2340000
g1
(g5
S'\xecQ\xb8\x1e\x85\xab0@'
p1490
tp1491
Rp1492
g1
(g5
S'33333\xb30@'
p1493
tp1494
Rp1495
F16.0
tp1496
a(I2350000
g1
(g5
S'\xc3\xf5(\\\x8f\xc20@'
p1497
tp1498
Rp1499
g1
(g5
S'\x85\xebQ\xb8\x1e\xc50@'
p1500
tp1501
Rp1502
F19.0
tp1503
a(I2360000
g1
(g5
S'H\xe1z\x14\xae\xc70@'
p1504
tp1505
Rp1506
g1
(g5
S'R\xb8\x1e\x85\xeb\xd10@'
p1507
tp1508
Rp1509
F16.0
tp1510
a(I2370000
g1
(g5
S'\xcd\xcc\xcc\xcc\xcc\xcc0@'
p1511
tp1512
Rp1513
g1509
F19.0
tp1514
a(I2380000
g1
(g5
S'\xf6(\\\x8f\xc2\xf50@'
p1515
tp1516
Rp1517
g1
(g5
S'\xf6(\\\x8f\xc2\xf50@'
p1518
tp1519
Rp1520
F20.0
tp1521
a(I2390000
g1
(g5
S'\x85\xebQ\xb8\x1eE1@'
p1522
tp1523
Rp1524
g1
(g5
S'\n\xd7\xa3p=J1@'
p1525
tp1526
Rp1527
F17.0
tp1528
a(I2400000
g1
(g5
S'H\xe1z\x14\xaeG1@'
p1529
tp1530
Rp1531
g1
(g5
S'\xe1z\x14\xaeGa1@'
p1532
tp1533
Rp1534
F6.0
tp1535
a(I2410000
g1
(g5
S'R\xb8\x1e\x85\xebQ1@'
p1536
tp1537
Rp1538
g1
(g5
S'\xecQ\xb8\x1e\x85k1@'
p1539
tp1540
Rp1541
F17.0
tp1542
a(I2420000
g1
(g5
S'\xcd\xcc\xcc\xcc\xccL1@'
p1543
tp1544
Rp1545
g1541
F20.0
tp1546
a(I2430000
g1
(g5
S'\\\x8f\xc2\xf5(\\1@'
p1547
tp1548
Rp1549
g1541
F17.0
tp1550
a(I2440000
g1
(g5
S'\xaeG\xe1z\x14n1@'
p1551
tp1552
Rp1553
g1
(g5
S'q=\n\xd7\xa3p1@'
p1554
tp1555
Rp1556
F21.0
tp1557
a(I2450000
g1
(g5
S')\\\x8f\xc2\xf5h1@'
p1558
tp1559
Rp1560
g1
(g5
S'33333s1@'
p1561
tp1562
Rp1563
F20.0
tp1564
a(I2460000
g1
(g5
S'q=\n\xd7\xa3p1@'
p1565
tp1566
Rp1567
g1
(g5
S'\xf6(\\\x8f\xc2u1@'
p1568
tp1569
Rp1570
F18.0
tp1571
a(I2470000
g1
(g5
S'fffff\xa61@'
p1572
tp1573
Rp1574
g1
(g5
S'fffff\xa61@'
p1575
tp1576
Rp1577
F19.0
tp1578
a(I2480000
g1
(g5
S'\xd7\xa3p=\n\x971@'
p1579
tp1580
Rp1581
g1577
F16.0
tp1582
a(I2490000
g1
(g5
S')\\\x8f\xc2\xf5\xa81@'
p1583
tp1584
Rp1585
g1
(g5
S')\\\x8f\xc2\xf5\xa81@'
p1586
tp1587
Rp1588
F19.0
tp1589
a(I2500000
g1
(g5
S'\x1f\x85\xebQ\xb8\x9e1@'
p1590
tp1591
Rp1592
g1
(g5
S'\xecQ\xb8\x1e\x85\xab1@'
p1593
tp1594
Rp1595
F20.0
tp1596
a(I2510000
g1
(g5
S'\x00\x00\x00\x00\x00\xc01@'
p1597
tp1598
Rp1599
g1
(g5
S'\x00\x00\x00\x00\x00\xc01@'
p1600
tp1601
Rp1602
F20.0
tp1603
a(I2520000
g1
(g5
S'\x00\x00\x00\x00\x00\xc01@'
p1604
tp1605
Rp1606
g1602
F18.0
tp1607
a(I2530000
g1
(g5
S'fffff\xa61@'
p1608
tp1609
Rp1610
g1602
F16.0
tp1611
a(I2540000
g1
(g5
S'\xcd\xcc\xcc\xcc\xcc\x8c1@'
p1612
tp1613
Rp1614
g1602
F20.0
tp1615
a(I2550000
g1
(g5
S'\x00\x00\x00\x00\x00\x801@'
p1616
tp1617
Rp1618
g1602
F18.0
tp1619
a(I2560000
g1
(g5
S'\x8f\xc2\xf5(\\\x8f1@'
p1620
tp1621
Rp1622
g1602
F18.0
tp1623
a(I2570000
g1
(g5
S'\n\xd7\xa3p=\x8a1@'
p1624
tp1625
Rp1626
g1602
F17.0
tp1627
a(I2580000
g1
(g5
S'\xcd\xcc\xcc\xcc\xcc\x8c1@'
p1628
tp1629
Rp1630
g1602
F18.0
tp1631
a(I2590000
g1
(g5
S'R\xb8\x1e\x85\xeb\x911@'
p1632
tp1633
Rp1634
g1602
F14.0
tp1635
a(I2600000
g1
(g5
S'H\xe1z\x14\xae\xc71@'
p1636
tp1637
Rp1638
g1
(g5
S'H\xe1z\x14\xae\xc71@'
p1639
tp1640
Rp1641
F20.0
tp1642
a(I2610000
g1
(g5
S'33333\xf31@'
p1643
tp1644
Rp1645
g1
(g5
S'33333\xf31@'
p1646
tp1647
Rp1648
F17.0
tp1649
a(I2620000
g1
(g5
S'\xf6(\\\x8f\xc2\xf51@'
p1650
tp1651
Rp1652
g1
(g5
S'=\n\xd7\xa3p\xfd1@'
p1653
tp1654
Rp1655
F17.0
tp1656
a(I2630000
g1
(g5
S'q=\n\xd7\xa3\xf01@'
p1657
tp1658
Rp1659
g1655
F18.0
tp1660
a(I2640000
g1
(g5
S'\xecQ\xb8\x1e\x85\xeb1@'
p1661
tp1662
Rp1663
g1655
F17.0
tp1664
a(I2650000
g1
(g5
S'\xf6(\\\x8f\xc2\xf51@'
p1665
tp1666
Rp1667
g1655
F20.0
tp1668
a(I2660000
g1
(g5
S'\xb8\x1e\x85\xebQ\xf81@'
p1669
tp1670
Rp1671
g1
(g5
S'\x85\xebQ\xb8\x1e\x052@'
p1672
tp1673
Rp1674
F18.0
tp1675
a(I2670000
g1
(g5
S'\xa4p=\n\xd7\xe31@'
p1676
tp1677
Rp1678
g1674
F17.0
tp1679
a(I2680000
g1
(g5
S'\xa4p=\n\xd7\xe31@'
p1680
tp1681
Rp1682
g1674
F17.0
tp1683
a(I2690000
g1
(g5
S'\x85\xebQ\xb8\x1e\xc51@'
p1684
tp1685
Rp1686
g1674
F15.0
tp1687
a(I2700000
g1
(g5
S'\xcd\xcc\xcc\xcc\xcc\xcc1@'
p1688
tp1689
Rp1690
g1674
F15.0
tp1691
a(I2710000
g1
(g5
S'\x00\x00\x00\x00\x00\xc01@'
p1692
tp1693
Rp1694
g1674
F14.0
tp1695
a(I2720000
g1
(g5
S'q=\n\xd7\xa3\xb01@'
p1696
tp1697
Rp1698
g1674
F13.0
tp1699
a(I2730000
g1
(g5
S'q=\n\xd7\xa3\xb01@'
p1700
tp1701
Rp1702
g1674
F17.0
tp1703
a(I2740000
g1
(g5
S'\x00\x00\x00\x00\x00\xc01@'
p1704
tp1705
Rp1706
g1674
F18.0
tp1707
a(I2750000
g1
(g5
S'\xcd\xcc\xcc\xcc\xcc\xcc1@'
p1708
tp1709
Rp1710
g1674
F17.0
tp1711
a(I2760000
g1
(g5
S'H\xe1z\x14\xae\xc71@'
p1712
tp1713
Rp1714
g1674
F19.0
tp1715
a(I2770000
g1
(g5
S'R\xb8\x1e\x85\xeb\xd11@'
p1716
tp1717
Rp1718
g1674
F20.0
tp1719
a(I2780000
g1
(g5
S'\x9a\x99\x99\x99\x99\xd91@'
p1720
tp1721
Rp1722
g1674
F18.0
tp1723
a(I2790000
g1
(g5
S'\xe1z\x14\xaeG\xe11@'
p1724
tp1725
Rp1726
g1674
F19.0
tp1727
a(I2800000
g1
(g5
S'\xe1z\x14\xaeG\xe11@'
p1728
tp1729
Rp1730
g1674
F18.0
tp1731
a(I2810000
g1
(g5
S'fffff\xe61@'
p1732
tp1733
Rp1734
g1674
F21.0
tp1735
a(I2820000
g1
(g5
S'q=\n\xd7\xa3\xf01@'
p1736
tp1737
Rp1738
g1674
F19.0
tp1739
a(I2830000
g1
(g5
S'H\xe1z\x14\xae\x072@'
p1740
tp1741
Rp1742
g1
(g5
S'H\xe1z\x14\xae\x072@'
p1743
tp1744
Rp1745
F19.0
tp1746
a(I2840000
g1
(g5
S'\x14\xaeG\xe1z\x142@'
p1747
tp1748
Rp1749
g1
(g5
S'\x14\xaeG\xe1z\x142@'
p1750
tp1751
Rp1752
F20.0
tp1753
a(I2850000
g1
(g5
S'R\xb8\x1e\x85\xeb\x112@'
p1754
tp1755
Rp1756
g1
(g5
S'\x1f\x85\xebQ\xb8\x1e2@'
p1757
tp1758
Rp1759
F21.0
tp1760
a(I2860000
g1
(g5
S'\xe1z\x14\xaeG!2@'
p1761
tp1762
Rp1763
g1
(g5
S'\xe1z\x14\xaeG!2@'
p1764
tp1765
Rp1766
F18.0
tp1767
a(I2870000
g1
(g5
S'\x14\xaeG\xe1z\x142@'
p1768
tp1769
Rp1770
g1
(g5
S'\xa4p=\n\xd7#2@'
p1771
tp1772
Rp1773
F16.0
tp1774
a(I2880000
g1
(g5
S'3333332@'
p1775
tp1776
Rp1777
g1
(g5
S'3333332@'
p1778
tp1779
Rp1780
F18.0
tp1781
a(I2890000
g1
(g5
S'\x00\x00\x00\x00\x00@2@'
p1782
tp1783
Rp1784
g1
(g5
S'\xc3\xf5(\\\x8fB2@'
p1785
tp1786
Rp1787
F19.0
tp1788
a(I2900000
g1
(g5
S'\xc3\xf5(\\\x8fB2@'
p1789
tp1790
Rp1791
g1787
F20.0
tp1792
a(I2910000
g1
(g5
S'\x14\xaeG\xe1zT2@'
p1793
tp1794
Rp1795
g1
(g5
S'\x14\xaeG\xe1zT2@'
p1796
tp1797
Rp1798
F21.0
tp1799
a(I2920000
g1
(g5
S'\xe1z\x14\xaeGa2@'
p1800
tp1801
Rp1802
g1
(g5
S'\xe1z\x14\xaeGa2@'
p1803
tp1804
Rp1805
F20.0
tp1806
a(I2930000
g1
(g5
S'33333s2@'
p1807
tp1808
Rp1809
g1
(g5
S'\xf6(\\\x8f\xc2u2@'
p1810
tp1811
Rp1812
F18.0
tp1813
a(I2940000
g1
(g5
S'\x85\xebQ\xb8\x1e\x852@'
p1814
tp1815
Rp1816
g1
(g5
S'\x85\xebQ\xb8\x1e\x852@'
p1817
tp1818
Rp1819
F20.0
tp1820
a(I2950000
g1
(g5
S'\n\xd7\xa3p=\x8a2@'
p1821
tp1822
Rp1823
g1
(g5
S'\n\xd7\xa3p=\x8a2@'
p1824
tp1825
Rp1826
F19.0
tp1827
a(I2960000
g1
(g5
S'\x9a\x99\x99\x99\x99\x992@'
p1828
tp1829
Rp1830
g1
(g5
S'\x9a\x99\x99\x99\x99\x992@'
p1831
tp1832
Rp1833
F18.0
tp1834
a(I2970000
g1
(g5
S'\x14\xaeG\xe1z\x942@'
p1835
tp1836
Rp1837
g1
(g5
S'fffff\xa62@'
p1838
tp1839
Rp1840
F14.0
tp1841
a(I2980000
g1
(g5
S'\xe1z\x14\xaeG\xa12@'
p1842
tp1843
Rp1844
g1840
F19.0
tp1845
a(I2990000
g1
(g5
S'R\xb8\x1e\x85\xeb\x912@'
p1846
tp1847
Rp1848
g1840
F16.0
tp1849
a(I3000000
g1
(g5
S'R\xb8\x1e\x85\xeb\x912@'
p1850
tp1851
Rp1852
g1840
F15.0
tp1853
a(I3010000
g1
(g5
S')\\\x8f\xc2\xf5\xa82@'
p1854
tp1855
Rp1856
g1
(g5
S')\\\x8f\xc2\xf5\xa82@'
p1857
tp1858
Rp1859
F21.0
tp1860
a(I3020000
g1
(g5
S'\x14\xaeG\xe1z\x942@'
p1861
tp1862
Rp1863
g1
(g5
S'\xecQ\xb8\x1e\x85\xab2@'
p1864
tp1865
Rp1866
F17.0
tp1867
a(I3030000
g1
(g5
S'\xc3\xf5(\\\x8f\x822@'
p1868
tp1869
Rp1870
g1866
F19.0
tp1871
a(I3040000
g1
(g5
S'\xd7\xa3p=\n\x972@'
p1872
tp1873
Rp1874
g1866
F21.0
tp1875
a(I3050000
g1
(g5
S'\xe1z\x14\xaeG\xa12@'
p1876
tp1877
Rp1878
g1866
F21.0
tp1879
a(I3060000
g1
(g5
S'q=\n\xd7\xa3\xb02@'
p1880
tp1881
Rp1882
g1
(g5
S'q=\n\xd7\xa3\xb02@'
p1883
tp1884
Rp1885
F19.0
tp1886
a(I3070000
g1
(g5
S'\x8f\xc2\xf5(\\\xcf2@'
p1887
tp1888
Rp1889
g1
(g5
S'\x14\xaeG\xe1z\xd42@'
p1890
tp1891
Rp1892
F20.0
tp1893
a(I3080000
g1
(g5
S'\x8f\xc2\xf5(\\\xcf2@'
p1894
tp1895
Rp1896
g1892
F18.0
tp1897
a(I3090000
g1
(g5
S'\x1f\x85\xebQ\xb8\xde2@'
p1898
tp1899
Rp1900
g1
(g5
S'\x1f\x85\xebQ\xb8\xde2@'
p1901
tp1902
Rp1903
F21.0
tp1904
a(I3100000
g1
(g5
S'\x1f\x85\xebQ\xb8\xde2@'
p1905
tp1906
Rp1907
g1
(g5
S'\xe1z\x14\xaeG\xe12@'
p1908
tp1909
Rp1910
F19.0
tp1911
a(I3110000
g1
(g5
S'\\\x8f\xc2\xf5(\xdc2@'
p1912
tp1913
Rp1914
g1910
F21.0
tp1915
a(I3120000
g1
(g5
S'q=\n\xd7\xa3\xf02@'
p1916
tp1917
Rp1918
g1
(g5
S'q=\n\xd7\xa3\xf02@'
p1919
tp1920
Rp1921
F20.0
tp1922
a(I3130000
g1
(g5
S'\xf6(\\\x8f\xc2\xf52@'
p1923
tp1924
Rp1925
g1
(g5
S'\xf6(\\\x8f\xc2\xf52@'
p1926
tp1927
Rp1928
F20.0
tp1929
a(I3140000
g1
(g5
S'\n\xd7\xa3p=\n3@'
p1930
tp1931
Rp1932
g1
(g5
S'\n\xd7\xa3p=\n3@'
p1933
tp1934
Rp1935
F20.0
tp1936
a(I3150000
g1
(g5
S'R\xb8\x1e\x85\xeb\x113@'
p1937
tp1938
Rp1939
g1
(g5
S'\x14\xaeG\xe1z\x143@'
p1940
tp1941
Rp1942
F20.0
tp1943
a(I3160000
g1
(g5
S'\xa4p=\n\xd7#3@'
p1944
tp1945
Rp1946
g1
(g5
S'\xa4p=\n\xd7#3@'
p1947
tp1948
Rp1949
F20.0
tp1950
a(I3170000
g1
(g5
S'\\\x8f\xc2\xf5(\x1c3@'
p1951
tp1952
Rp1953
g1949
F19.0
tp1954
a(I3180000
g1
(g5
S')\\\x8f\xc2\xf5(3@'
p1955
tp1956
Rp1957
g1
(g5
S'\xaeG\xe1z\x14.3@'
p1958
tp1959
Rp1960
F19.0
tp1961
a(I3190000
g1
(g5
S'q=\n\xd7\xa303@'
p1962
tp1963
Rp1964
g1
(g5
S'3333333@'
p1965
tp1966
Rp1967
F19.0
tp1968
a(I3200000
g1
(g5
S'\xb8\x1e\x85\xebQ83@'
p1969
tp1970
Rp1971
g1
(g5
S'\xb8\x1e\x85\xebQ83@'
p1972
tp1973
Rp1974
F19.0
tp1975
a(I3210000
g1
(g5
S'\x14\xaeG\xe1zT3@'
p1976
tp1977
Rp1978
g1
(g5
S'\x14\xaeG\xe1zT3@'
p1979
tp1980
Rp1981
F18.0
tp1982
a(I3220000
g1
(g5
S'R\xb8\x1e\x85\xebQ3@'
p1983
tp1984
Rp1985
g1
(g5
S'ffffff3@'
p1986
tp1987
Rp1988
F16.0
tp1989
a(I3230000
g1
(g5
S'\xcd\xcc\xcc\xcc\xccL3@'
p1990
tp1991
Rp1992
g1988
F20.0
tp1993
a(I3240000
g1
(g5
S'\x14\xaeG\xe1zT3@'
p1994
tp1995
Rp1996
g1988
F21.0
tp1997
a(I3250000
g1
(g5
S'\n\xd7\xa3p=J3@'
p1998
tp1999
Rp2000
g1988
F20.0
tp2001
a(I3260000
g1
(g5
S'R\xb8\x1e\x85\xebQ3@'
p2002
tp2003
Rp2004
g1988
F18.0
tp2005
a(I3270000
g1
(g5
S'\xaeG\xe1z\x14n3@'
p2006
tp2007
Rp2008
g1
(g5
S'\xaeG\xe1z\x14n3@'
p2009
tp2010
Rp2011
F20.0
tp2012
a(I3280000
g1
(g5
S')\\\x8f\xc2\xf5h3@'
p2013
tp2014
Rp2015
g2011
F21.0
tp2016
a(I3290000
g1
(g5
S'\xb8\x1e\x85\xebQx3@'
p2017
tp2018
Rp2019
g1
(g5
S'{\x14\xaeG\xe1z3@'
p2020
tp2021
Rp2022
F19.0
tp2023
a(I3300000
g1
(g5
S'q=\n\xd7\xa3p3@'
p2024
tp2025
Rp2026
g2022
F21.0
tp2027
a(I3310000
g1
(g5
S'\xaeG\xe1z\x14n3@'
p2028
tp2029
Rp2030
g2022
F19.0
tp2031
a(I3320000
g1
(g5
S'=\n\xd7\xa3p}3@'
p2032
tp2033
Rp2034
g1
(g5
S'=\n\xd7\xa3p}3@'
p2035
tp2036
Rp2037
F20.0
tp2038
a(I3330000
g1
(g5
S')\\\x8f\xc2\xf5h3@'
p2039
tp2040
Rp2041
g2037
F19.0
tp2042
a(I3340000
g1
(g5
S'33333s3@'
p2043
tp2044
Rp2045
g2037
F20.0
tp2046
a(I3350000
g1
(g5
S'H\xe1z\x14\xae\x873@'
p2047
tp2048
Rp2049
g1
(g5
S'H\xe1z\x14\xae\x873@'
p2050
tp2051
Rp2052
F21.0
tp2053
a(I3360000
g1
(g5
S'\xd7\xa3p=\n\x973@'
p2054
tp2055
Rp2056
g1
(g5
S'\xd7\xa3p=\n\x973@'
p2057
tp2058
Rp2059
F21.0
tp2060
a(I3370000
g1
(g5
S'R\xb8\x1e\x85\xeb\x913@'
p2061
tp2062
Rp2063
g1
(g5
S'\x9a\x99\x99\x99\x99\x993@'
p2064
tp2065
Rp2066
F17.0
tp2067
a(I3380000
g1
(g5
S'\x14\xaeG\xe1z\x943@'
p2068
tp2069
Rp2070
g2066
F19.0
tp2071
a(I3390000
g1
(g5
S'\x8f\xc2\xf5(\\\x8f3@'
p2072
tp2073
Rp2074
g2066
F19.0
tp2075
a(I3400000
g1
(g5
S'R\xb8\x1e\x85\xeb\x913@'
p2076
tp2077
Rp2078
g2066
F18.0
tp2079
a(I3410000
g1
(g5
S'\xaeG\xe1z\x14\xae3@'
p2080
tp2081
Rp2082
g1
(g5
S'\xaeG\xe1z\x14\xae3@'
p2083
tp2084
Rp2085
F21.0
tp2086
a(I3420000
g1
(g5
S'\xa4p=\n\xd7\xa33@'
p2087
tp2088
Rp2089
g2085
F20.0
tp2090
a(I3430000
g1
(g5
S'33333\xb33@'
p2091
tp2092
Rp2093
g1
(g5
S'33333\xb33@'
p2094
tp2095
Rp2096
F21.0
tp2097
a(I3440000
g1
(g5
S')\\\x8f\xc2\xf5\xa83@'
p2098
tp2099
Rp2100
g1
(g5
S'\xb8\x1e\x85\xebQ\xb83@'
p2101
tp2102
Rp2103
F18.0
tp2104
a(I3450000
g1
(g5
S')\\\x8f\xc2\xf5\xa83@'
p2105
tp2106
Rp2107
g2103
F21.0
tp2108
a(I3460000
g1
(g5
S'33333\xb33@'
p2109
tp2110
Rp2111
g2103
F20.0
tp2112
a(I3470000
g1
(g5
S'33333\xb33@'
p2113
tp2114
Rp2115
g2103
F20.0
tp2116
a(I3480000
g1
(g5
S'\xecQ\xb8\x1e\x85\xab3@'
p2117
tp2118
Rp2119
g2103
F21.0
tp2120
a(I3490000
g1
(g5
S'\xaeG\xe1z\x14\xae3@'
p2121
tp2122
Rp2123
g2103
F21.0
tp2124
a(I3500000
g1
(g5
S')\\\x8f\xc2\xf5\xa83@'
p2125
tp2126
Rp2127
g2103
F19.0
tp2128
a(I3510000
g1
(g5
S'q=\n\xd7\xa3\xb03@'
p2129
tp2130
Rp2131
g2103
F20.0
tp2132
a(I3520000
g1
(g5
S'fffff\xa63@'
p2133
tp2134
Rp2135
g2103
F19.0
tp2136
a(I3530000
g1
(g5
S'R\xb8\x1e\x85\xeb\x913@'
p2137
tp2138
Rp2139
g2103
F19.0
tp2140
a(I3540000
g1
(g5
S'R\xb8\x1e\x85\xeb\x913@'
p2141
tp2142
Rp2143
g2103
F21.0
tp2144
a(I3550000
g1
(g5
S'R\xb8\x1e\x85\xeb\x913@'
p2145
tp2146
Rp2147
g2103
F20.0
tp2148
a(I3560000
g1
(g5
S'\x8f\xc2\xf5(\\\x8f3@'
p2149
tp2150
Rp2151
g2103
F20.0
tp2152
a(I3570000
g1
(g5
S'H\xe1z\x14\xae\x873@'
p2153
tp2154
Rp2155
g2103
F19.0
tp2156
a(I3580000
g1
(g5
S'\x8f\xc2\xf5(\\\x8f3@'
p2157
tp2158
Rp2159
g2103
F20.0
tp2160
a(I3590000
g1
(g5
S'\x8f\xc2\xf5(\\\x8f3@'
p2161
tp2162
Rp2163
g2103
F20.0
tp2164
a(I3600000
g1
(g5
S'\x14\xaeG\xe1z\x943@'
p2165
tp2166
Rp2167
g2103
F19.0
tp2168
a(I3610000
g1
(g5
S'\xcd\xcc\xcc\xcc\xcc\x8c3@'
p2169
tp2170
Rp2171
g2103
F17.0
tp2172
a(I3620000
g1
(g5
S'\x14\xaeG\xe1z\x943@'
p2173
tp2174
Rp2175
g2103
F19.0
tp2176
a(I3630000
g1
(g5
S'\x1f\x85\xebQ\xb8\x9e3@'
p2177
tp2178
Rp2179
g2103
F21.0
tp2180
a(I3640000
g1
(g5
S'\x1f\x85\xebQ\xb8\x9e3@'
p2181
tp2182
Rp2183
g2103
F18.0
tp2184
a(I3650000
g1
(g5
S'\xd7\xa3p=\n\x973@'
p2185
tp2186
Rp2187
g2103
F20.0
tp2188
a(I3660000
g1
(g5
S'q=\n\xd7\xa3\xb03@'
p2189
tp2190
Rp2191
g2103
F21.0
tp2192
a(I3670000
g1
(g5
S'q=\n\xd7\xa3\xb03@'
p2193
tp2194
Rp2195
g2103
F20.0
tp2196
a(I3680000
g1
(g5
S'\xb8\x1e\x85\xebQ\xb83@'
p2197
tp2198
Rp2199
g2103
F21.0
tp2200
a(I3690000
g1
(g5
S'=\n\xd7\xa3p\xbd3@'
p2201
tp2202
Rp2203
g1
(g5
S'\x00\x00\x00\x00\x00\xc03@'
p2204
tp2205
Rp2206
F18.0
tp2207
a(I3700000
g1
(g5
S'H\xe1z\x14\xae\xc73@'
p2208
tp2209
Rp2210
g1
(g5
S'H\xe1z\x14\xae\xc73@'
p2211
tp2212
Rp2213
F20.0
tp2214
a(I3710000
g1
(g5
S'\x9a\x99\x99\x99\x99\xd93@'
p2215
tp2216
Rp2217
g1
(g5
S'\\\x8f\xc2\xf5(\xdc3@'
p2218
tp2219
Rp2220
F20.0
tp2221
a(I3720000
g1
(g5
S'\xa4p=\n\xd7\xe33@'
p2222
tp2223
Rp2224
g1
(g5
S'\xa4p=\n\xd7\xe33@'
p2225
tp2226
Rp2227
F20.0
tp2228
a(I3730000
g1
(g5
S'\n\xd7\xa3p=\xca3@'
p2229
tp2230
Rp2231
g2227
F20.0
tp2232
a(I3740000
g1
(g5
S'\\\x8f\xc2\xf5(\xdc3@'
p2233
tp2234
Rp2235
g2227
F20.0
tp2236
a(I3750000
g1
(g5
S'\xe1z\x14\xaeG\xe13@'
p2237
tp2238
Rp2239
g1
(g5
S'fffff\xe63@'
p2240
tp2241
Rp2242
F19.0
tp2243
a(I3760000
g1
(g5
S'q=\n\xd7\xa3\xf03@'
p2244
tp2245
Rp2246
g1
(g5
S'q=\n\xd7\xa3\xf03@'
p2247
tp2248
Rp2249
F21.0
tp2250
a(I3770000
g1
(g5
S'fffff\xe63@'
p2251
tp2252
Rp2253
g1
(g5
S'33333\xf33@'
p2254
tp2255
Rp2256
F20.0
tp2257
a(I3780000
g1
(g5
S'\x1f\x85\xebQ\xb8\xde3@'
p2258
tp2259
Rp2260
g2256
F20.0
tp2261
a(I3790000
g1
(g5
S'\x9a\x99\x99\x99\x99\xd93@'
p2262
tp2263
Rp2264
g2256
F21.0
tp2265
a(I3800000
g1
(g5
S'fffff\xe63@'
p2266
tp2267
Rp2268
g2256
F21.0
tp2269
a(I3810000
g1
(g5
S'33333\xf33@'
p2270
tp2271
Rp2272
g2256
F21.0
tp2273
a(I3820000
g1
(g5
S'\xc3\xf5(\\\x8f\x024@'
p2274
tp2275
Rp2276
g1
(g5
S'\xc3\xf5(\\\x8f\x024@'
p2277
tp2278
Rp2279
F19.0
tp2280
a(I3830000
g1
(g5
S'\xcd\xcc\xcc\xcc\xcc\x0c4@'
p2281
tp2282
Rp2283
g1
(g5
S'\xcd\xcc\xcc\xcc\xcc\x0c4@'
p2284
tp2285
Rp2286
F21.0
tp2287
a(I3840000
g1
(g5
S'\x85\xebQ\xb8\x1e\x054@'
p2288
tp2289
Rp2290
g2286
F19.0
tp2291
a(I3850000
g1
(g5
S'R\xb8\x1e\x85\xeb\x114@'
p2292
tp2293
Rp2294
g1
(g5
S'R\xb8\x1e\x85\xeb\x114@'
p2295
tp2296
Rp2297
F21.0
tp2298
a(I3860000
g1
(g5
S'\n\xd7\xa3p=\n4@'
p2299
tp2300
Rp2301
g2297
F20.0
tp2302
a(I3870000
g1
(g5
S'\x8f\xc2\xf5(\\\x0f4@'
p2303
tp2304
Rp2305
g2297
F21.0
tp2306
a(I3880000
g1
(g5
S'\x85\xebQ\xb8\x1e\x054@'
p2307
tp2308
Rp2309
g2297
F16.0
tp2310
a(I3890000
g1
(g5
S'{\x14\xaeG\xe1\xfa3@'
p2311
tp2312
Rp2313
g2297
F18.0
tp2314
a(I3900000
g1
(g5
S'{\x14\xaeG\xe1\xfa3@'
p2315
tp2316
Rp2317
g2297
F21.0
tp2318
a(I3910000
g1
(g5
S'R\xb8\x1e\x85\xeb\x114@'
p2319
tp2320
Rp2321
g1
(g5
S'\x9a\x99\x99\x99\x99\x194@'
p2322
tp2323
Rp2324
F19.0
tp2325
a(I3920000
g1
(g5
S'R\xb8\x1e\x85\xeb\x114@'
p2326
tp2327
Rp2328
g2324
F18.0
tp2329
a(I3930000
g1
(g5
S'\xcd\xcc\xcc\xcc\xcc\x0c4@'
p2330
tp2331
Rp2332
g2324
F20.0
tp2333
a(I3940000
g1
(g5
S'\xd7\xa3p=\n\x174@'
p2334
tp2335
Rp2336
g2324
F21.0
tp2337
a(I3950000
g1
(g5
S'\x9a\x99\x99\x99\x99\x194@'
p2338
tp2339
Rp2340
g2324
F19.0
tp2341
a(I3960000
g1
(g5
S')\\\x8f\xc2\xf5(4@'
p2342
tp2343
Rp2344
g1
(g5
S'\xecQ\xb8\x1e\x85+4@'
p2345
tp2346
Rp2347
F19.0
tp2348
a(I3970000
g1
(g5
S'\x1f\x85\xebQ\xb8\x1e4@'
p2349
tp2350
Rp2351
g1
(g5
S'\xaeG\xe1z\x14.4@'
p2352
tp2353
Rp2354
F18.0
tp2355
a(I3980000
g1
(g5
S'\x1f\x85\xebQ\xb8\x1e4@'
p2356
tp2357
Rp2358
g2354
F21.0
tp2359
a(I3990000
g1
(g5
S'\x1f\x85\xebQ\xb8\x1e4@'
p2360
tp2361
Rp2362
g2354
F21.0
tp2363
a(I4000000
g1
(g5
S'\xc3\xf5(\\\x8f\x024@'
p2364
tp2365
Rp2366
g2354
F20.0
tp2367
a(I4010000
g1
(g5
S'\xcd\xcc\xcc\xcc\xcc\x0c4@'
p2368
tp2369
Rp2370
g2354
F21.0
tp2371
a(I4020000
g1
(g5
S'\n\xd7\xa3p=\n4@'
p2372
tp2373
Rp2374
g2354
F21.0
tp2375
a(I4030000
g1
(g5
S'R\xb8\x1e\x85\xeb\x114@'
p2376
tp2377
Rp2378
g2354
F21.0
tp2379
a(I4040000
g1
(g5
S'\x9a\x99\x99\x99\x99\x194@'
p2380
tp2381
Rp2382
g2354
F21.0
tp2383
a(I4050000
g1
(g5
S'fffff&4@'
p2384
tp2385
Rp2386
g2354
F21.0
tp2387
a(I4060000
g1
(g5
S'3333334@'
p2388
tp2389
Rp2390
g1
(g5
S'{\x14\xaeG\xe1:4@'
p2391
tp2392
Rp2393
F21.0
tp2394
a(I4070000
g1
(g5
S'\x00\x00\x00\x00\x00@4@'
p2395
tp2396
Rp2397
g1
(g5
S'\x00\x00\x00\x00\x00@4@'
p2398
tp2399
Rp2400
F21.0
tp2401
a(I4080000
g1
(g5
S'{\x14\xaeG\xe1:4@'
p2402
tp2403
Rp2404
g2400
F21.0
tp2405
a(I4090000
g1
(g5
S'=\n\xd7\xa3p=4@'
p2406
tp2407
Rp2408
g2400
F21.0
tp2409
a(I4100000
g1
(g5
S'\n\xd7\xa3p=J4@'
p2410
tp2411
Rp2412
g1
(g5
S'\n\xd7\xa3p=J4@'
p2413
tp2414
Rp2415
F21.0
tp2416
a(I4110000
g1
(g5
S'\xb8\x1e\x85\xebQ84@'
p2417
tp2418
Rp2419
g2415
F20.0
tp2420
a(I4120000
g1
(g5
S'\x85\xebQ\xb8\x1eE4@'
p2421
tp2422
Rp2423
g2415
F21.0
tp2424
a(I4130000
g1
(g5
S'\xc3\xf5(\\\x8fB4@'
p2425
tp2426
Rp2427
g2415
F19.0
tp2428
a(I4140000
g1
(g5
S'R\xb8\x1e\x85\xebQ4@'
p2429
tp2430
Rp2431
g1
(g5
S'\x14\xaeG\xe1zT4@'
p2432
tp2433
Rp2434
F17.0
tp2435
a(I4150000
g1
(g5
S'\xcd\xcc\xcc\xcc\xccL4@'
p2436
tp2437
Rp2438
g2434
F20.0
tp2439
a(I4160000
g1
(g5
S'\n\xd7\xa3p=J4@'
p2440
tp2441
Rp2442
g2434
F20.0
tp2443
a(I4170000
g1
(g5
S'\xaeG\xe1z\x14n4@'
p2444
tp2445
Rp2446
g1
(g5
S'\xaeG\xe1z\x14n4@'
p2447
tp2448
Rp2449
F21.0
tp2450
a(I4180000
g1
(g5
S'\xecQ\xb8\x1e\x85k4@'
p2451
tp2452
Rp2453
g1
(g5
S'q=\n\xd7\xa3p4@'
p2454
tp2455
Rp2456
F21.0
tp2457
a(I4190000
g1
(g5
S'ffffff4@'
p2458
tp2459
Rp2460
g2456
F20.0
tp2461
a(I4200000
g1
(g5
S'\xe1z\x14\xaeGa4@'
p2462
tp2463
Rp2464
g2456
F21.0
tp2465
a(I4210000
g1
(g5
S'\xe1z\x14\xaeGa4@'
p2466
tp2467
Rp2468
g2456
F21.0
tp2469
a(I4220000
g1
(g5
S'\x8f\xc2\xf5(\\O4@'
p2470
tp2471
Rp2472
g2456
F15.0
tp2473
a(I4230000
g1
(g5
S'R\xb8\x1e\x85\xebQ4@'
p2474
tp2475
Rp2476
g2456
F21.0
tp2477
a(I4240000
g1
(g5
S'\x8f\xc2\xf5(\\O4@'
p2478
tp2479
Rp2480
g2456
F21.0
tp2481
a(I4250000
g1
(g5
S'R\xb8\x1e\x85\xebQ4@'
p2482
tp2483
Rp2484
g2456
F21.0
tp2485
a(I4260000
g1
(g5
S'R\xb8\x1e\x85\xebQ4@'
p2486
tp2487
Rp2488
g2456
F20.0
tp2489
a(I4270000
g1
(g5
S'H\xe1z\x14\xaeG4@'
p2490
tp2491
Rp2492
g2456
F21.0
tp2493
a(I4280000
g1
(g5
S'R\xb8\x1e\x85\xebQ4@'
p2494
tp2495
Rp2496
g2456
F20.0
tp2497
a(I4290000
g1
(g5
S'\x8f\xc2\xf5(\\O4@'
p2498
tp2499
Rp2500
g2456
F21.0
tp2501
a(I4300000
g1
(g5
S'\x14\xaeG\xe1zT4@'
p2502
tp2503
Rp2504
g2456
F21.0
tp2505
a(I4310000
g1
(g5
S'\x14\xaeG\xe1zT4@'
p2506
tp2507
Rp2508
g2456
F21.0
tp2509
a(I4320000
g1
(g5
S'\\\x8f\xc2\xf5(\\4@'
p2510
tp2511
Rp2512
g2456
F20.0
tp2513
a(I4330000
g1
(g5
S'\x9a\x99\x99\x99\x99Y4@'
p2514
tp2515
Rp2516
g2456
F19.0
tp2517
a(I4340000
g1
(g5
S'\x1f\x85\xebQ\xb8^4@'
p2518
tp2519
Rp2520
g2456
F21.0
tp2521
a(I4350000
g1
(g5
S'ffffff4@'
p2522
tp2523
Rp2524
g2456
F21.0
tp2525
a(I4360000
g1
(g5
S')\\\x8f\xc2\xf5h4@'
p2526
tp2527
Rp2528
g2456
F19.0
tp2529
a(I4370000
g1
(g5
S'\xaeG\xe1z\x14n4@'
p2530
tp2531
Rp2532
g2456
F21.0
tp2533
a(I4380000
g1
(g5
S'\xaeG\xe1z\x14n4@'
p2534
tp2535
Rp2536
g2456
F20.0
tp2537
a(I4390000
g1
(g5
S')\\\x8f\xc2\xf5h4@'
p2538
tp2539
Rp2540
g2456
F21.0
tp2541
a(I4400000
g1
(g5
S'=\n\xd7\xa3p}4@'
p2542
tp2543
Rp2544
g1
(g5
S'=\n\xd7\xa3p}4@'
p2545
tp2546
Rp2547
F20.0
tp2548
a(I4410000
g1
(g5
S'\x00\x00\x00\x00\x00\x804@'
p2549
tp2550
Rp2551
g1
(g5
S'\x00\x00\x00\x00\x00\x804@'
p2552
tp2553
Rp2554
F21.0
tp2555
a(I4420000
g1
(g5
S'\x00\x00\x00\x00\x00\x804@'
p2556
tp2557
Rp2558
g1
(g5
S'\xc3\xf5(\\\x8f\x824@'
p2559
tp2560
Rp2561
F20.0
tp2562
a(I4430000
g1
(g5
S'\xc3\xf5(\\\x8f\x824@'
p2563
tp2564
Rp2565
g2561
F21.0
tp2566
a(I4440000
g1
(g5
S'R\xb8\x1e\x85\xeb\x914@'
p2567
tp2568
Rp2569
g1
(g5
S'\x14\xaeG\xe1z\x944@'
p2570
tp2571
Rp2572
F20.0
tp2573
a(I4450000
g1
(g5
S'\x14\xaeG\xe1z\x944@'
p2574
tp2575
Rp2576
g1
(g5
S'\xd7\xa3p=\n\x974@'
p2577
tp2578
Rp2579
F21.0
tp2580
a(I4460000
g1
(g5
S'\\\x8f\xc2\xf5(\x9c4@'
p2581
tp2582
Rp2583
g1
(g5
S'\\\x8f\xc2\xf5(\x9c4@'
p2584
tp2585
Rp2586
F21.0
tp2587
a(I4470000
g1
(g5
S'\xd7\xa3p=\n\x974@'
p2588
tp2589
Rp2590
g2586
F20.0
tp2591
a(I4480000
g1
(g5
S'\xd7\xa3p=\n\x974@'
p2592
tp2593
Rp2594
g2586
F20.0
tp2595
a(I4490000
g1
(g5
S'\x9a\x99\x99\x99\x99\x994@'
p2596
tp2597
Rp2598
g2586
F21.0
tp2599
a(I4500000
g1
(g5
S'\xe1z\x14\xaeG\xa14@'
p2600
tp2601
Rp2602
g1
(g5
S'\xe1z\x14\xaeG\xa14@'
p2603
tp2604
Rp2605
F21.0
tp2606
a(I4510000
g1
(g5
S'\xa4p=\n\xd7\xa34@'
p2607
tp2608
Rp2609
g1
(g5
S'\xa4p=\n\xd7\xa34@'
p2610
tp2611
Rp2612
F21.0
tp2613
a(I4520000
g1
(g5
S'\\\x8f\xc2\xf5(\x9c4@'
p2614
tp2615
Rp2616
g2612
F21.0
tp2617
a(I4530000
g1
(g5
S'\x9a\x99\x99\x99\x99\x994@'
p2618
tp2619
Rp2620
g2612
F21.0
tp2621
a(I4540000
g1
(g5
S'\xd7\xa3p=\n\x974@'
p2622
tp2623
Rp2624
g2612
F20.0
tp2625
a(I4550000
g1
(g5
S'\x9a\x99\x99\x99\x99\x994@'
p2626
tp2627
Rp2628
g2612
F21.0
tp2629
a(I4560000
g1
(g5
S'\\\x8f\xc2\xf5(\x9c4@'
p2630
tp2631
Rp2632
g2612
F20.0
tp2633
a(I4570000
g1
(g5
S'\xe1z\x14\xaeG\xa14@'
p2634
tp2635
Rp2636
g2612
F21.0
tp2637
a(I4580000
g1
(g5
S'\\\x8f\xc2\xf5(\x9c4@'
p2638
tp2639
Rp2640
g2612
F21.0
tp2641
a(I4590000
g1
(g5
S'\x1f\x85\xebQ\xb8\x9e4@'
p2642
tp2643
Rp2644
g2612
F21.0
tp2645
a(I4600000
g1
(g5
S'\\\x8f\xc2\xf5(\x9c4@'
p2646
tp2647
Rp2648
g2612
F21.0
tp2649
a(I4610000
g1
(g5
S'\xd7\xa3p=\n\x974@'
p2650
tp2651
Rp2652
g2612
F21.0
tp2653
a(I4620000
g1
(g5
S'\x9a\x99\x99\x99\x99\x994@'
p2654
tp2655
Rp2656
g2612
F21.0
tp2657
a(I4630000
g1
(g5
S'R\xb8\x1e\x85\xeb\x914@'
p2658
tp2659
Rp2660
g2612
F20.0
tp2661
a(I4640000
g1
(g5
S'\xd7\xa3p=\n\x974@'
p2662
tp2663
Rp2664
g2612
F21.0
tp2665
a(I4650000
g1
(g5
S'H\xe1z\x14\xae\x874@'
p2666
tp2667
Rp2668
g2612
F21.0
tp2669
a(I4660000
g1
(g5
S'H\xe1z\x14\xae\x874@'
p2670
tp2671
Rp2672
g2612
F21.0
tp2673
a(I4670000
g1
(g5
S'\x00\x00\x00\x00\x00\x804@'
p2674
tp2675
Rp2676
g2612
F20.0
tp2677
a(I4680000
g1
(g5
S'\xb8\x1e\x85\xebQx4@'
p2678
tp2679
Rp2680
g2612
F21.0
tp2681
a(I4690000
g1
(g5
S'=\n\xd7\xa3p}4@'
p2682
tp2683
Rp2684
g2612
F21.0
tp2685
a(I4700000
g1
(g5
S'\n\xd7\xa3p=\x8a4@'
p2686
tp2687
Rp2688
g2612
F21.0
tp2689
a(I4710000
g1
(g5
S'H\xe1z\x14\xae\x874@'
p2690
tp2691
Rp2692
g2612
F20.0
tp2693
a(I4720000
g1
(g5
S'\xcd\xcc\xcc\xcc\xcc\x8c4@'
p2694
tp2695
Rp2696
g2612
F21.0
tp2697
a(I4730000
g1
(g5
S'\x8f\xc2\xf5(\\\x8f4@'
p2698
tp2699
Rp2700
g2612
F21.0
tp2701
a(I4740000
g1
(g5
S'\x85\xebQ\xb8\x1e\x854@'
p2702
tp2703
Rp2704
g2612
F20.0
tp2705
a(I4750000
g1
(g5
S'H\xe1z\x14\xae\x874@'
p2706
tp2707
Rp2708
g2612
F21.0
tp2709
a(I4760000
g1
(g5
S'\x00\x00\x00\x00\x00\x804@'
p2710
tp2711
Rp2712
g2612
F20.0
tp2713
a(I4770000
g1
(g5
S'\xc3\xf5(\\\x8f\x824@'
p2714
tp2715
Rp2716
g2612
F21.0
tp2717
a(I4780000
g1
(g5
S'\n\xd7\xa3p=\x8a4@'
p2718
tp2719
Rp2720
g2612
F21.0
tp2721
a(I4790000
g1
(g5
S'\xc3\xf5(\\\x8f\x824@'
p2722
tp2723
Rp2724
g2612
F21.0
tp2725
a(I4800000
g1
(g5
S'\xb8\x1e\x85\xebQx4@'
p2726
tp2727
Rp2728
g2612
F21.0
tp2729
a(I4810000
g1
(g5
S'=\n\xd7\xa3p}4@'
p2730
tp2731
Rp2732
g2612
F21.0
tp2733
a(I4820000
g1
(g5
S'H\xe1z\x14\xae\x874@'
p2734
tp2735
Rp2736
g2612
F20.0
tp2737
a(I4830000
g1
(g5
S'\xcd\xcc\xcc\xcc\xcc\x8c4@'
p2738
tp2739
Rp2740
g2612
F20.0
tp2741
a(I4840000
g1
(g5
S'\x14\xaeG\xe1z\x944@'
p2742
tp2743
Rp2744
g2612
F21.0
tp2745
a(I4850000
g1
(g5
S'\\\x8f\xc2\xf5(\x9c4@'
p2746
tp2747
Rp2748
g2612
F21.0
tp2749
a(I4860000
g1
(g5
S'\x9a\x99\x99\x99\x99\x994@'
p2750
tp2751
Rp2752
g2612
F20.0
tp2753
a(I4870000
g1
(g5
S'\xcd\xcc\xcc\xcc\xcc\x8c4@'
p2754
tp2755
Rp2756
g2612
F21.0
tp2757
a(I4880000
g1
(g5
S'\x85\xebQ\xb8\x1e\x854@'
p2758
tp2759
Rp2760
g2612
F21.0
tp2761
a(I4890000
g1
(g5
S'\x00\x00\x00\x00\x00\x804@'
p2762
tp2763
Rp2764
g2612
F21.0
tp2765
a(I4900000
g1
(g5
S'\xb8\x1e\x85\xebQx4@'
p2766
tp2767
Rp2768
g2612
F19.0
tp2769
a(I4910000
g1
(g5
S'\x85\xebQ\xb8\x1e\x854@'
p2770
tp2771
Rp2772
g2612
F21.0
tp2773
a(I4920000
g1
(g5
S'\n\xd7\xa3p=\x8a4@'
p2774
tp2775
Rp2776
g2612
F20.0
tp2777
a(I4930000
g1
(g5
S'\xcd\xcc\xcc\xcc\xcc\x8c4@'
p2778
tp2779
Rp2780
g2612
F21.0
tp2781
a(I4940000
g1
(g5
S'H\xe1z\x14\xae\x874@'
p2782
tp2783
Rp2784
g2612
F19.0
tp2785
a(I4950000
g1
(g5
S'\xc3\xf5(\\\x8f\x824@'
p2786
tp2787
Rp2788
g2612
F20.0
tp2789
a(I4960000
g1
(g5
S'{\x14\xaeG\xe1z4@'
p2790
tp2791
Rp2792
g2612
F18.0
tp2793
a(I4970000
g1
(g5
S'H\xe1z\x14\xae\x874@'
p2794
tp2795
Rp2796
g2612
F20.0
tp2797
a(I4980000
g1
(g5
S'\xf6(\\\x8f\xc2u4@'
p2798
tp2799
Rp2800
g2612
F20.0
tp2801
a(I4990000
g1
(g5
S'\xb8\x1e\x85\xebQx4@'
p2802
tp2803
Rp2804
g2612
F21.0
tp2805
a(I5000000
g1
(g5
S'33333s4@'
p2806
tp2807
Rp2808
g2612
F21.0
tp2809
a(I5010000
g1
(g5
S'\xf6(\\\x8f\xc2u4@'
p2810
tp2811
Rp2812
g2612
F21.0
tp2813
a(I5020000
g1
(g5
S'q=\n\xd7\xa3p4@'
p2814
tp2815
Rp2816
g2612
F21.0
tp2817
a(I5030000
g1
(g5
S'33333s4@'
p2818
tp2819
Rp2820
g2612
F21.0
tp2821
a(I5040000
g1
(g5
S'=\n\xd7\xa3p}4@'
p2822
tp2823
Rp2824
g2612
F21.0
tp2825
a(I5050000
g1
(g5
S'\x00\x00\x00\x00\x00\x804@'
p2826
tp2827
Rp2828
g2612
F21.0
tp2829
a(I5060000
g1
(g5
S'H\xe1z\x14\xae\x874@'
p2830
tp2831
Rp2832
g2612
F21.0
tp2833
a(I5070000
g1
(g5
S'\x8f\xc2\xf5(\\\x8f4@'
p2834
tp2835
Rp2836
g2612
F21.0
tp2837
a(I5080000
g1
(g5
S'H\xe1z\x14\xae\x874@'
p2838
tp2839
Rp2840
g2612
F20.0
tp2841
a(I5090000
g1
(g5
S'\x85\xebQ\xb8\x1e\x854@'
p2842
tp2843
Rp2844
g2612
F21.0
tp2845
a(I5100000
g1
(g5
S'\x00\x00\x00\x00\x00\x804@'
p2846
tp2847
Rp2848
g2612
F20.0
tp2849
a(I5110000
g1
(g5
S'\x00\x00\x00\x00\x00\x804@'
p2850
tp2851
Rp2852
g2612
F21.0
tp2853
a(I5120000
g1
(g5
S'\x00\x00\x00\x00\x00\x804@'
p2854
tp2855
Rp2856
g2612
F21.0
tp2857
a(I5130000
g1
(g5
S'H\xe1z\x14\xae\x874@'
p2858
tp2859
Rp2860
g2612
F19.0
tp2861
a(I5140000
g1
(g5
S'\n\xd7\xa3p=\x8a4@'
p2862
tp2863
Rp2864
g2612
F21.0
tp2865
a(I5150000
g1
(g5
S'\x9a\x99\x99\x99\x99\x994@'
p2866
tp2867
Rp2868
g2612
F21.0
tp2869
a(I5160000
g1
(g5
S'\x14\xaeG\xe1z\x944@'
p2870
tp2871
Rp2872
g2612
F21.0
tp2873
a(I5170000
g1
(g5
S'\\\x8f\xc2\xf5(\x9c4@'
p2874
tp2875
Rp2876
g2612
F21.0
tp2877
a(I5180000
g1
(g5
S'\x14\xaeG\xe1z\x944@'
p2878
tp2879
Rp2880
g2612
F20.0
tp2881
a(I5190000
g1
(g5
S'\\\x8f\xc2\xf5(\x9c4@'
p2882
tp2883
Rp2884
g2612
F20.0
tp2885
a(I5200000
g1
(g5
S'\\\x8f\xc2\xf5(\x9c4@'
p2886
tp2887
Rp2888
g2612
F20.0
tp2889
a(I5210000
g1
(g5
S'\xe1z\x14\xaeG\xa14@'
p2890
tp2891
Rp2892
g2612
F20.0
tp2893
a(I5220000
g1
(g5
S'\x9a\x99\x99\x99\x99\x994@'
p2894
tp2895
Rp2896
g2612
F20.0
tp2897
a(I5230000
g1
(g5
S'\x14\xaeG\xe1z\x944@'
p2898
tp2899
Rp2900
g2612
F21.0
tp2901
a(I5240000
g1
(g5
S'R\xb8\x1e\x85\xeb\x914@'
p2902
tp2903
Rp2904
g2612
F21.0
tp2905
a(I5250000
g1
(g5
S'H\xe1z\x14\xae\x874@'
p2906
tp2907
Rp2908
g2612
F18.0
tp2909
a(I5260000
g1
(g5
S'\x85\xebQ\xb8\x1e\x854@'
p2910
tp2911
Rp2912
g2612
F21.0
tp2913
a(I5270000
g1
(g5
S'\x8f\xc2\xf5(\\\x8f4@'
p2914
tp2915
Rp2916
g2612
F21.0
tp2917
a(I5280000
g1
(g5
S'\xd7\xa3p=\n\x974@'
p2918
tp2919
Rp2920
g2612
F21.0
tp2921
a(I5290000
g1
(g5
S'\xcd\xcc\xcc\xcc\xcc\x8c4@'
p2922
tp2923
Rp2924
g2612
F17.0
tp2925
a(I5300000
g1
(g5
S'\x8f\xc2\xf5(\\\x8f4@'
p2926
tp2927
Rp2928
g2612
F21.0
tp2929
a(I5310000
g1
(g5
S'\x8f\xc2\xf5(\\\x8f4@'
p2930
tp2931
Rp2932
g2612
F21.0
tp2933
a(I5320000
g1
(g5
S'\x85\xebQ\xb8\x1e\x854@'
p2934
tp2935
Rp2936
g2612
F21.0
tp2937
a(I5330000
g1
(g5
S'\x8f\xc2\xf5(\\\x8f4@'
p2938
tp2939
Rp2940
g2612
F21.0
tp2941
a(I5340000
g1
(g5
S'\n\xd7\xa3p=\x8a4@'
p2942
tp2943
Rp2944
g2612
F21.0
tp2945
a(I5350000
g1
(g5
S'\x8f\xc2\xf5(\\\x8f4@'
p2946
tp2947
Rp2948
g2612
F21.0
tp2949
a(I5360000
g1
(g5
S'\xcd\xcc\xcc\xcc\xcc\x8c4@'
p2950
tp2951
Rp2952
g2612
F21.0
tp2953
a(I5370000
g1
(g5
S'\n\xd7\xa3p=\x8a4@'
p2954
tp2955
Rp2956
g2612
F21.0
tp2957
a(I5380000
g1
(g5
S'\x85\xebQ\xb8\x1e\x854@'
p2958
tp2959
Rp2960
g2612
F21.0
tp2961
a(I5390000
g1
(g5
S'R\xb8\x1e\x85\xeb\x914@'
p2962
tp2963
Rp2964
g2612
F21.0
tp2965
a(I5400000
g1
(g5
S'R\xb8\x1e\x85\xeb\x914@'
p2966
tp2967
Rp2968
g2612
F21.0
tp2969
a(I5410000
g1
(g5
S'R\xb8\x1e\x85\xeb\x914@'
p2970
tp2971
Rp2972
g2612
F21.0
tp2973
a(I5420000
g1
(g5
S'\x9a\x99\x99\x99\x99\x994@'
p2974
tp2975
Rp2976
g2612
F21.0
tp2977
a(I5430000
g1
(g5
S'\xa4p=\n\xd7\xa34@'
p2978
tp2979
Rp2980
g2612
F21.0
tp2981
a(I5440000
g1
(g5
S'fffff\xa64@'
p2982
tp2983
Rp2984
g1
(g5
S'fffff\xa64@'
p2985
tp2986
Rp2987
F21.0
tp2988
a(I5450000
g1
(g5
S'\xa4p=\n\xd7\xa34@'
p2989
tp2990
Rp2991
g2987
F21.0
tp2992
a(I5460000
g1
(g5
S'q=\n\xd7\xa3\xb04@'
p2993
tp2994
Rp2995
g1
(g5
S'q=\n\xd7\xa3\xb04@'
p2996
tp2997
Rp2998
F21.0
tp2999
a(I5470000
g1
(g5
S'33333\xb34@'
p3000
tp3001
Rp3002
g1
(g5
S'33333\xb34@'
p3003
tp3004
Rp3005
F21.0
tp3006
a(I5480000
g1
(g5
S'\xf6(\\\x8f\xc2\xb54@'
p3007
tp3008
Rp3009
g1
(g5
S'{\x14\xaeG\xe1\xba4@'
p3010
tp3011
Rp3012
F19.0
tp3013
a(I5490000
g1
(g5
S'{\x14\xaeG\xe1\xba4@'
p3014
tp3015
Rp3016
g1
(g5
S'=\n\xd7\xa3p\xbd4@'
p3017
tp3018
Rp3019
F21.0
tp3020
a(I5500000
g1
(g5
S'33333\xb34@'
p3021
tp3022
Rp3023
g3019
F21.0
tp3024
a(I5510000
g1
(g5
S'\xf6(\\\x8f\xc2\xb54@'
p3025
tp3026
Rp3027
g3019
F21.0
tp3028
a(I5520000
g1
(g5
S'q=\n\xd7\xa3\xb04@'
p3029
tp3030
Rp3031
g3019
F21.0
tp3032
a(I5530000
g1
(g5
S'\xf6(\\\x8f\xc2\xb54@'
p3033
tp3034
Rp3035
g3019
F21.0
tp3036
a(I5540000
g1
(g5
S'=\n\xd7\xa3p\xbd4@'
p3037
tp3038
Rp3039
g3019
F21.0
tp3040
a(I5550000
g1
(g5
S'\xc3\xf5(\\\x8f\xc24@'
p3041
tp3042
Rp3043
g1
(g5
S'\xc3\xf5(\\\x8f\xc24@'
p3044
tp3045
Rp3046
F21.0
tp3047
a(I5560000
g1
(g5
S'=\n\xd7\xa3p\xbd4@'
p3048
tp3049
Rp3050
g3046
F21.0
tp3051
a(I5570000
g1
(g5
S'\xf6(\\\x8f\xc2\xb54@'
p3052
tp3053
Rp3054
g3046
F21.0
tp3055
a(I5580000
g1
(g5
S'33333\xb34@'
p3056
tp3057
Rp3058
g3046
F19.0
tp3059
a(I5590000
g1
(g5
S'33333\xb34@'
p3060
tp3061
Rp3062
g3046
F21.0
tp3063
a(I5600000
g1
(g5
S'q=\n\xd7\xa3\xb04@'
p3064
tp3065
Rp3066
g3046
F21.0
tp3067
a(I5610000
g1
(g5
S'\xaeG\xe1z\x14\xae4@'
p3068
tp3069
Rp3070
g3046
F20.0
tp3071
a(I5620000
g1
(g5
S')\\\x8f\xc2\xf5\xa84@'
p3072
tp3073
Rp3074
g3046
F21.0
tp3075
a(I5630000
g1
(g5
S'\\\x8f\xc2\xf5(\x9c4@'
p3076
tp3077
Rp3078
g3046
F21.0
tp3079
a(I5640000
g1
(g5
S'\x9a\x99\x99\x99\x99\x994@'
p3080
tp3081
Rp3082
g3046
F20.0
tp3083
a(I5650000
g1
(g5
S'\\\x8f\xc2\xf5(\x9c4@'
p3084
tp3085
Rp3086
g3046
F21.0
tp3087
a(I5660000
g1
(g5
S'\xe1z\x14\xaeG\xa14@'
p3088
tp3089
Rp3090
g3046
F21.0
tp3091
a(I5670000
g1
(g5
S'\x1f\x85\xebQ\xb8\x9e4@'
p3092
tp3093
Rp3094
g3046
F20.0
tp3095
a(I5680000
g1
(g5
S'\x9a\x99\x99\x99\x99\x994@'
p3096
tp3097
Rp3098
g3046
F21.0
tp3099
a(I5690000
g1
(g5
S'\x9a\x99\x99\x99\x99\x994@'
p3100
tp3101
Rp3102
g3046
F20.0
tp3103
a(I5700000
g1
(g5
S'\xd7\xa3p=\n\x974@'
p3104
tp3105
Rp3106
g3046
F20.0
tp3107
a(I5710000
g1
(g5
S'\xcd\xcc\xcc\xcc\xcc\x8c4@'
p3108
tp3109
Rp3110
g3046
F21.0
tp3111
a(I5720000
g1
(g5
S'\xcd\xcc\xcc\xcc\xcc\x8c4@'
p3112
tp3113
Rp3114
g3046
F21.0
tp3115
a(I5730000
g1
(g5
S'\n\xd7\xa3p=\x8a4@'
p3116
tp3117
Rp3118
g3046
F20.0
tp3119
a(I5740000
g1
(g5
S'R\xb8\x1e\x85\xeb\x914@'
p3120
tp3121
Rp3122
g3046
F21.0
tp3123
a(I5750000
g1
(g5
S'\x14\xaeG\xe1z\x944@'
p3124
tp3125
Rp3126
g3046
F20.0
tp3127
a(I5760000
g1
(g5
S'\x14\xaeG\xe1z\x944@'
p3128
tp3129
Rp3130
g3046
F21.0
tp3131
a(I5770000
g1
(g5
S'\x9a\x99\x99\x99\x99\x994@'
p3132
tp3133
Rp3134
g3046
F20.0
tp3135
a(I5780000
g1
(g5
S'\xcd\xcc\xcc\xcc\xcc\x8c4@'
p3136
tp3137
Rp3138
g3046
F20.0
tp3139
a(I5790000
g1
(g5
S'R\xb8\x1e\x85\xeb\x914@'
p3140
tp3141
Rp3142
g3046
F21.0
tp3143
a(I5800000
g1
(g5
S'\x14\xaeG\xe1z\x944@'
p3144
tp3145
Rp3146
g3046
F21.0
tp3147
a(I5810000
g1
(g5
S'\x14\xaeG\xe1z\x944@'
p3148
tp3149
Rp3150
g3046
F21.0
tp3151
a(I5820000
g1
(g5
S'\x8f\xc2\xf5(\\\x8f4@'
p3152
tp3153
Rp3154
g3046
F19.0
tp3155
a(I5830000
g1
(g5
S'\x8f\xc2\xf5(\\\x8f4@'
p3156
tp3157
Rp3158
g3046
F21.0
tp3159
a(I5840000
g1
(g5
S'\x14\xaeG\xe1z\x944@'
p3160
tp3161
Rp3162
g3046
F21.0
tp3163
a(I5850000
g1
(g5
S'\\\x8f\xc2\xf5(\x9c4@'
p3164
tp3165
Rp3166
g3046
F21.0
tp3167
a(I5860000
g1
(g5
S'\\\x8f\xc2\xf5(\x9c4@'
p3168
tp3169
Rp3170
g3046
F20.0
tp3171
a(I5870000
g1
(g5
S'\x9a\x99\x99\x99\x99\x994@'
p3172
tp3173
Rp3174
g3046
F19.0
tp3175
a(I5880000
g1
(g5
S'\\\x8f\xc2\xf5(\x9c4@'
p3176
tp3177
Rp3178
g3046
F21.0
tp3179
a(I5890000
g1
(g5
S'\\\x8f\xc2\xf5(\x9c4@'
p3180
tp3181
Rp3182
g3046
F21.0
tp3183
a(I5900000
g1
(g5
S'fffff\xa64@'
p3184
tp3185
Rp3186
g3046
F21.0
tp3187
a(I5910000
g1
(g5
S'\xa4p=\n\xd7\xa34@'
p3188
tp3189
Rp3190
g3046
F21.0
tp3191
a(I5920000
g1
(g5
S'\xa4p=\n\xd7\xa34@'
p3192
tp3193
Rp3194
g3046
F21.0
tp3195
a(I5930000
g1
(g5
S'fffff\xa64@'
p3196
tp3197
Rp3198
g3046
F21.0
tp3199
a(I5940000
g1
(g5
S'\xecQ\xb8\x1e\x85\xab4@'
p3200
tp3201
Rp3202
g3046
F21.0
tp3203
a(I5950000
g1
(g5
S'33333\xb34@'
p3204
tp3205
Rp3206
g3046
F21.0
tp3207
a(I5960000
g1
(g5
S'\xb8\x1e\x85\xebQ\xb84@'
p3208
tp3209
Rp3210
g3046
F20.0
tp3211
a(I5970000
g1
(g5
S'\xf6(\\\x8f\xc2\xb54@'
p3212
tp3213
Rp3214
g3046
F20.0
tp3215
a(I5980000
g1
(g5
S'33333\xb34@'
p3216
tp3217
Rp3218
g3046
F21.0
tp3219
a(I5990000
g1
(g5
S'q=\n\xd7\xa3\xb04@'
p3220
tp3221
Rp3222
g3046
F20.0
tp3223
a(I6000000
g1
(g5
S'\xecQ\xb8\x1e\x85\xab4@'
p3224
tp3225
Rp3226
g3046
F20.0
tp3227
a(I6010000
g1
(g5
S')\\\x8f\xc2\xf5\xa84@'
p3228
tp3229
Rp3230
g3046
F21.0
tp3231
a(I6020000
g1
(g5
S'\\\x8f\xc2\xf5(\x9c4@'
p3232
tp3233
Rp3234
g3046
F21.0
tp3235
a(I6030000
g1
(g5
S'\\\x8f\xc2\xf5(\x9c4@'
p3236
tp3237
Rp3238
g3046
F20.0
tp3239
a(I6040000
g1
(g5
S'\xd7\xa3p=\n\x974@'
p3240
tp3241
Rp3242
g3046
F21.0
tp3243
a(I6050000
g1
(g5
S'\\\x8f\xc2\xf5(\x9c4@'
p3244
tp3245
Rp3246
g3046
F21.0
tp3247
a(I6060000
g1
(g5
S'\x1f\x85\xebQ\xb8\x9e4@'
p3248
tp3249
Rp3250
g3046
F21.0
tp3251
a(I6070000
g1
(g5
S'\x8f\xc2\xf5(\\\x8f4@'
p3252
tp3253
Rp3254
g3046
F21.0
tp3255
a(I6080000
g1
(g5
S'\xcd\xcc\xcc\xcc\xcc\x8c4@'
p3256
tp3257
Rp3258
g3046
F21.0
tp3259
a(I6090000
g1
(g5
S'\x8f\xc2\xf5(\\\x8f4@'
p3260
tp3261
Rp3262
g3046
F21.0
tp3263
a(I6100000
g1
(g5
S'\x8f\xc2\xf5(\\\x8f4@'
p3264
tp3265
Rp3266
g3046
F21.0
tp3267
a(I6110000
g1
(g5
S'H\xe1z\x14\xae\x874@'
p3268
tp3269
Rp3270
g3046
F21.0
tp3271
a(I6120000
g1
(g5
S'H\xe1z\x14\xae\x874@'
p3272
tp3273
Rp3274
g3046
F21.0
tp3275
a(I6130000
g1
(g5
S'H\xe1z\x14\xae\x874@'
p3276
tp3277
Rp3278
g3046
F21.0
tp3279
a(I6140000
g1
(g5
S'\x8f\xc2\xf5(\\\x8f4@'
p3280
tp3281
Rp3282
g3046
F20.0
tp3283
a(I6150000
g1
(g5
S'\n\xd7\xa3p=\x8a4@'
p3284
tp3285
Rp3286
g3046
F21.0
tp3287
a(I6160000
g1
(g5
S'\x8f\xc2\xf5(\\\x8f4@'
p3288
tp3289
Rp3290
g3046
F20.0
tp3291
a(I6170000
g1
(g5
S'\xcd\xcc\xcc\xcc\xcc\x8c4@'
p3292
tp3293
Rp3294
g3046
F21.0
tp3295
a(I6180000
g1
(g5
S'R\xb8\x1e\x85\xeb\x914@'
p3296
tp3297
Rp3298
g3046
F21.0
tp3299
a(I6190000
g1
(g5
S'\x9a\x99\x99\x99\x99\x994@'
p3300
tp3301
Rp3302
g3046
F20.0
tp3303
a(I6200000
g1
(g5
S'\xe1z\x14\xaeG\xa14@'
p3304
tp3305
Rp3306
g3046
F21.0
tp3307
a(I6210000
g1
(g5
S'fffff\xa64@'
p3308
tp3309
Rp3310
g3046
F20.0
tp3311
a(I6220000
g1
(g5
S'\x1f\x85\xebQ\xb8\x9e4@'
p3312
tp3313
Rp3314
g3046
F20.0
tp3315
a(I6230000
g1
(g5
S'\xa4p=\n\xd7\xa34@'
p3316
tp3317
Rp3318
g3046
F21.0
tp3319
a(I6240000
g1
(g5
S'\xecQ\xb8\x1e\x85\xab4@'
p3320
tp3321
Rp3322
g3046
F21.0
tp3323
a(I6250000
g1
(g5
S'\xf6(\\\x8f\xc2\xb54@'
p3324
tp3325
Rp3326
g3046
F21.0
tp3327
a(I6260000
g1
(g5
S'\xaeG\xe1z\x14\xae4@'
p3328
tp3329
Rp3330
g3046
F21.0
tp3331
a(I6270000
g1
(g5
S'q=\n\xd7\xa3\xb04@'
p3332
tp3333
Rp3334
g3046
F21.0
tp3335
a(I6280000
g1
(g5
S')\\\x8f\xc2\xf5\xa84@'
p3336
tp3337
Rp3338
g3046
F21.0
tp3339
a(I6290000
g1
(g5
S')\\\x8f\xc2\xf5\xa84@'
p3340
tp3341
Rp3342
g3046
F21.0
tp3343
a(I6300000
g1
(g5
S')\\\x8f\xc2\xf5\xa84@'
p3344
tp3345
Rp3346
g3046
F20.0
tp3347
a(I6310000
g1
(g5
S'\xecQ\xb8\x1e\x85\xab4@'
p3348
tp3349
Rp3350
g3046
F21.0
tp3351
a(I6320000
g1
(g5
S'q=\n\xd7\xa3\xb04@'
p3352
tp3353
Rp3354
g3046
F21.0
tp3355
a(I6330000
g1
(g5
S'q=\n\xd7\xa3\xb04@'
p3356
tp3357
Rp3358
g3046
F21.0
tp3359
a(I6340000
g1
(g5
S'{\x14\xaeG\xe1\xba4@'
p3360
tp3361
Rp3362
g3046
F21.0
tp3363
a(I6350000
g1
(g5
S'\xf6(\\\x8f\xc2\xb54@'
p3364
tp3365
Rp3366
g3046
F21.0
tp3367
a(I6360000
g1
(g5
S'\xf6(\\\x8f\xc2\xb54@'
p3368
tp3369
Rp3370
g3046
F21.0
tp3371
a(I6370000
g1
(g5
S'q=\n\xd7\xa3\xb04@'
p3372
tp3373
Rp3374
g3046
F19.0
tp3375
a(I6380000
g1
(g5
S'\xb8\x1e\x85\xebQ\xb84@'
p3376
tp3377
Rp3378
g3046
F21.0
tp3379
a(I6390000
g1
(g5
S'\xf6(\\\x8f\xc2\xb54@'
p3380
tp3381
Rp3382
g3046
F21.0
tp3383
a(I6400000
g1
(g5
S'q=\n\xd7\xa3\xb04@'
p3384
tp3385
Rp3386
g3046
F21.0
tp3387
a(I6410000
g1
(g5
S'q=\n\xd7\xa3\xb04@'
p3388
tp3389
Rp3390
g3046
F20.0
tp3391
a(I6420000
g1
(g5
S'q=\n\xd7\xa3\xb04@'
p3392
tp3393
Rp3394
g3046
F21.0
tp3395
a(I6430000
g1
(g5
S'\xf6(\\\x8f\xc2\xb54@'
p3396
tp3397
Rp3398
g3046
F20.0
tp3399
a(I6440000
g1
(g5
S'q=\n\xd7\xa3\xb04@'
p3400
tp3401
Rp3402
g3046
F21.0
tp3403
a(I6450000
g1
(g5
S'q=\n\xd7\xa3\xb04@'
p3404
tp3405
Rp3406
g3046
F21.0
tp3407
a(I6460000
g1
(g5
S'33333\xb34@'
p3408
tp3409
Rp3410
g3046
F21.0
tp3411
a(I6470000
g1
(g5
S'q=\n\xd7\xa3\xb04@'
p3412
tp3413
Rp3414
g3046
F21.0
tp3415
a(I6480000
g1
(g5
S'\xecQ\xb8\x1e\x85\xab4@'
p3416
tp3417
Rp3418
g3046
F20.0
tp3419
a(I6490000
g1
(g5
S'fffff\xa64@'
p3420
tp3421
Rp3422
g3046
F19.0
tp3423
a(I6500000
g1
(g5
S'fffff\xa64@'
p3424
tp3425
Rp3426
g3046
F21.0
tp3427
a(I6510000
g1
(g5
S'fffff\xa64@'
p3428
tp3429
Rp3430
g3046
F21.0
tp3431
a(I6520000
g1
(g5
S'fffff\xa64@'
p3432
tp3433
Rp3434
g3046
F21.0
tp3435
a(I6530000
g1
(g5
S'fffff\xa64@'
p3436
tp3437
Rp3438
g3046
F21.0
tp3439
a(I6540000
g1
(g5
S'\xa4p=\n\xd7\xa34@'
p3440
tp3441
Rp3442
g3046
F20.0
tp3443
a(I6550000
g1
(g5
S')\\\x8f\xc2\xf5\xa84@'
p3444
tp3445
Rp3446
g3046
F21.0
tp3447
a(I6560000
g1
(g5
S'\xaeG\xe1z\x14\xae4@'
p3448
tp3449
Rp3450
g3046
F21.0
tp3451
a(I6570000
g1
(g5
S'\xaeG\xe1z\x14\xae4@'
p3452
tp3453
Rp3454
g3046
F20.0
tp3455
a(I6580000
g1
(g5
S')\\\x8f\xc2\xf5\xa84@'
p3456
tp3457
Rp3458
g3046
F20.0
tp3459
a(I6590000
g1
(g5
S'\\\x8f\xc2\xf5(\x9c4@'
p3460
tp3461
Rp3462
g3046
F20.0
tp3463
a(I6600000
g1
(g5
S'\\\x8f\xc2\xf5(\x9c4@'
p3464
tp3465
Rp3466
g3046
F21.0
tp3467
a(I6610000
g1
(g5
S'fffff\xa64@'
p3468
tp3469
Rp3470
g3046
F21.0
tp3471
a(I6620000
g1
(g5
S')\\\x8f\xc2\xf5\xa84@'
p3472
tp3473
Rp3474
g3046
F21.0
tp3475
a(I6630000
g1
(g5
S'\\\x8f\xc2\xf5(\x9c4@'
p3476
tp3477
Rp3478
g3046
F21.0
tp3479
a(I6640000
g1
(g5
S'\\\x8f\xc2\xf5(\x9c4@'
p3480
tp3481
Rp3482
g3046
F20.0
tp3483
a(I6650000
g1
(g5
S'\x1f\x85\xebQ\xb8\x9e4@'
p3484
tp3485
Rp3486
g3046
F21.0
tp3487
a(I6660000
g1
(g5
S'\x1f\x85\xebQ\xb8\x9e4@'
p3488
tp3489
Rp3490
g3046
F20.0
tp3491
a(I6670000
g1
(g5
S'\x9a\x99\x99\x99\x99\x994@'
p3492
tp3493
Rp3494
g3046
F19.0
tp3495
a(I6680000
g1
(g5
S'\x14\xaeG\xe1z\x944@'
p3496
tp3497
Rp3498
g3046
F21.0
tp3499
a(I6690000
g1
(g5
S'\xd7\xa3p=\n\x974@'
p3500
tp3501
Rp3502
g3046
F21.0
tp3503
a(I6700000
g1
(g5
S'\xd7\xa3p=\n\x974@'
p3504
tp3505
Rp3506
g3046
F21.0
tp3507
a(I6710000
g1
(g5
S'R\xb8\x1e\x85\xeb\x914@'
p3508
tp3509
Rp3510
g3046
F19.0
tp3511
a(I6720000
g1
(g5
S'R\xb8\x1e\x85\xeb\x914@'
p3512
tp3513
Rp3514
g3046
F21.0
tp3515
a(I6730000
g1
(g5
S'\x8f\xc2\xf5(\\\x8f4@'
p3516
tp3517
Rp3518
g3046
F21.0
tp3519
a(I6740000
g1
(g5
S'\xc3\xf5(\\\x8f\x824@'
p3520
tp3521
Rp3522
g3046
F21.0
tp3523
a(I6750000
g1
(g5
S'=\n\xd7\xa3p}4@'
p3524
tp3525
Rp3526
g3046
F21.0
tp3527
a(I6760000
g1
(g5
S'\xcd\xcc\xcc\xcc\xcc\x8c4@'
p3528
tp3529
Rp3530
g3046
F21.0
tp3531
a(I6770000
g1
(g5
S'\x14\xaeG\xe1z\x944@'
p3532
tp3533
Rp3534
g3046
F21.0
tp3535
a(I6780000
g1
(g5
S'R\xb8\x1e\x85\xeb\x914@'
p3536
tp3537
Rp3538
g3046
F21.0
tp3539
a(I6790000
g1
(g5
S'\x14\xaeG\xe1z\x944@'
p3540
tp3541
Rp3542
g3046
F21.0
tp3543
a(I6800000
g1
(g5
S'\\\x8f\xc2\xf5(\x9c4@'
p3544
tp3545
Rp3546
g3046
F21.0
tp3547
a(I6810000
g1
(g5
S'\\\x8f\xc2\xf5(\x9c4@'
p3548
tp3549
Rp3550
g3046
F21.0
tp3551
a(I6820000
g1
(g5
S'\x14\xaeG\xe1z\x944@'
p3552
tp3553
Rp3554
g3046
F16.0
tp3555
a(I6830000
g1
(g5
S'\xd7\xa3p=\n\x974@'
p3556
tp3557
Rp3558
g3046
F21.0
tp3559
a(I6840000
g1
(g5
S'\x9a\x99\x99\x99\x99\x994@'
p3560
tp3561
Rp3562
g3046
F21.0
tp3563
a(I6850000
g1
(g5
S'fffff\xa64@'
p3564
tp3565
Rp3566
g3046
F21.0
tp3567
a(I6860000
g1
(g5
S'\xa4p=\n\xd7\xa34@'
p3568
tp3569
Rp3570
g3046
F20.0
tp3571
a(I6870000
g1
(g5
S'\\\x8f\xc2\xf5(\x9c4@'
p3572
tp3573
Rp3574
g3046
F20.0
tp3575
a(I6880000
g1
(g5
S'\xd7\xa3p=\n\x974@'
p3576
tp3577
Rp3578
g3046
F21.0
tp3579
a(I6890000
g1
(g5
S'\x9a\x99\x99\x99\x99\x994@'
p3580
tp3581
Rp3582
g3046
F21.0
tp3583
a(I6900000
g1
(g5
S'R\xb8\x1e\x85\xeb\x914@'
p3584
tp3585
Rp3586
g3046
F18.0
tp3587
a(I6910000
g1
(g5
S'\\\x8f\xc2\xf5(\x9c4@'
p3588
tp3589
Rp3590
g3046
F21.0
tp3591
a(I6920000
g1
(g5
S'\xe1z\x14\xaeG\xa14@'
p3592
tp3593
Rp3594
g3046
F20.0
tp3595
a(I6930000
g1
(g5
S'\xe1z\x14\xaeG\xa14@'
p3596
tp3597
Rp3598
g3046
F21.0
tp3599
a(I6940000
g1
(g5
S'\x14\xaeG\xe1z\x944@'
p3600
tp3601
Rp3602
g3046
F19.0
tp3603
a(I6950000
g1
(g5
S'R\xb8\x1e\x85\xeb\x914@'
p3604
tp3605
Rp3606
g3046
F21.0
tp3607
a(I6960000
g1
(g5
S'\x8f\xc2\xf5(\\\x8f4@'
p3608
tp3609
Rp3610
g3046
F21.0
tp3611
a(I6970000
g1
(g5
S'\xcd\xcc\xcc\xcc\xcc\x8c4@'
p3612
tp3613
Rp3614
g3046
F21.0
tp3615
a(I6980000
g1
(g5
S'\n\xd7\xa3p=\x8a4@'
p3616
tp3617
Rp3618
g3046
F21.0
tp3619
a(I6990000
g1
(g5
S'\x9a\x99\x99\x99\x99\x994@'
p3620
tp3621
Rp3622
g3046
F21.0
tp3623
a(I7000000
g1
(g5
S'\x8f\xc2\xf5(\\\x8f4@'
p3624
tp3625
Rp3626
g3046
F20.0
tp3627
a(I7010000
g1
(g5
S'R\xb8\x1e\x85\xeb\x914@'
p3628
tp3629
Rp3630
g3046
F21.0
tp3631
a(I7020000
g1
(g5
S'\xcd\xcc\xcc\xcc\xcc\x8c4@'
p3632
tp3633
Rp3634
g3046
F21.0
tp3635
a(I7030000
g1
(g5
S'\x85\xebQ\xb8\x1e\x854@'
p3636
tp3637
Rp3638
g3046
F19.0
tp3639
a(I7040000
g1
(g5
S'\n\xd7\xa3p=\x8a4@'
p3640
tp3641
Rp3642
g3046
F21.0
tp3643
a(I7050000
g1
(g5
S'\x14\xaeG\xe1z\x944@'
p3644
tp3645
Rp3646
g3046
F21.0
tp3647
a(I7060000
g1
(g5
S'\x8f\xc2\xf5(\\\x8f4@'
p3648
tp3649
Rp3650
g3046
F21.0
tp3651
a(I7070000
g1
(g5
S'\n\xd7\xa3p=\x8a4@'
p3652
tp3653
Rp3654
g3046
F20.0
tp3655
a(I7080000
g1
(g5
S'H\xe1z\x14\xae\x874@'
p3656
tp3657
Rp3658
g3046
F19.0
tp3659
a(I7090000
g1
(g5
S'\xc3\xf5(\\\x8f\x824@'
p3660
tp3661
Rp3662
g3046
F21.0
tp3663
a(I7100000
g1
(g5
S'\x00\x00\x00\x00\x00\x804@'
p3664
tp3665
Rp3666
g3046
F20.0
tp3667
a(I7110000
g1
(g5
S'H\xe1z\x14\xae\x874@'
p3668
tp3669
Rp3670
g3046
F21.0
tp3671
a(I7120000
g1
(g5
S'\n\xd7\xa3p=\x8a4@'
p3672
tp3673
Rp3674
g3046
F21.0
tp3675
a(I7130000
g1
(g5
S'\xc3\xf5(\\\x8f\x824@'
p3676
tp3677
Rp3678
g3046
F21.0
tp3679
a(I7140000
g1
(g5
S'\x85\xebQ\xb8\x1e\x854@'
p3680
tp3681
Rp3682
g3046
F21.0
tp3683
a(I7150000
g1
(g5
S'H\xe1z\x14\xae\x874@'
p3684
tp3685
Rp3686
g3046
F21.0
tp3687
a(I7160000
g1
(g5
S'H\xe1z\x14\xae\x874@'
p3688
tp3689
Rp3690
g3046
F20.0
tp3691
a(I7170000
g1
(g5
S'\n\xd7\xa3p=\x8a4@'
p3692
tp3693
Rp3694
g3046
F21.0
tp3695
a(I7180000
g1
(g5
S'H\xe1z\x14\xae\x874@'
p3696
tp3697
Rp3698
g3046
F21.0
tp3699
a(I7190000
g1
(g5
S'\n\xd7\xa3p=\x8a4@'
p3700
tp3701
Rp3702
g3046
F20.0
tp3703
a(I7200000
g1
(g5
S'\x14\xaeG\xe1z\x944@'
p3704
tp3705
Rp3706
g3046
F21.0
tp3707
a(I7210000
g1
(g5
S'\x8f\xc2\xf5(\\\x8f4@'
p3708
tp3709
Rp3710
g3046
F21.0
tp3711
a(I7220000
g1
(g5
S'\xcd\xcc\xcc\xcc\xcc\x8c4@'
p3712
tp3713
Rp3714
g3046
F21.0
tp3715
a(I7230000
g1
(g5
S'\x8f\xc2\xf5(\\\x8f4@'
p3716
tp3717
Rp3718
g3046
F21.0
tp3719
a(I7240000
g1
(g5
S'\x9a\x99\x99\x99\x99\x994@'
p3720
tp3721
Rp3722
g3046
F21.0
tp3723
a(I7250000
g1
(g5
S'\xd7\xa3p=\n\x974@'
p3724
tp3725
Rp3726
g3046
F21.0
tp3727
a(I7260000
g1
(g5
S'\x1f\x85\xebQ\xb8\x9e4@'
p3728
tp3729
Rp3730
g3046
F21.0
tp3731
a(I7270000
g1
(g5
S'\xe1z\x14\xaeG\xa14@'
p3732
tp3733
Rp3734
g3046
F21.0
tp3735
a(I7280000
g1
(g5
S'fffff\xa64@'
p3736
tp3737
Rp3738
g3046
F21.0
tp3739
a(I7290000
g1
(g5
S')\\\x8f\xc2\xf5\xa84@'
p3740
tp3741
Rp3742
g3046
F21.0
tp3743
a(I7300000
g1
(g5
S'33333\xb34@'
p3744
tp3745
Rp3746
g3046
F20.0
tp3747
a(I7310000
g1
(g5
S'q=\n\xd7\xa3\xb04@'
p3748
tp3749
Rp3750
g3046
F20.0
tp3751
a(I7320000
g1
(g5
S'\xf6(\\\x8f\xc2\xb54@'
p3752
tp3753
Rp3754
g3046
F20.0
tp3755
a(I7330000
g1
(g5
S'{\x14\xaeG\xe1\xba4@'
p3756
tp3757
Rp3758
g3046
F21.0
tp3759
a(I7340000
g1
(g5
S'\xb8\x1e\x85\xebQ\xb84@'
p3760
tp3761
Rp3762
g3046
F20.0
tp3763
a(I7350000
g1
(g5
S'\xb8\x1e\x85\xebQ\xb84@'
p3764
tp3765
Rp3766
g3046
F20.0
tp3767
a(I7360000
g1
(g5
S'\xb8\x1e\x85\xebQ\xb84@'
p3768
tp3769
Rp3770
g3046
F21.0
tp3771
a(I7370000
g1
(g5
S'33333\xb34@'
p3772
tp3773
Rp3774
g3046
F21.0
tp3775
a(I7380000
g1
(g5
S'=\n\xd7\xa3p\xbd4@'
p3776
tp3777
Rp3778
g3046
F21.0
tp3779
a(I7390000
g1
(g5
S'\x85\xebQ\xb8\x1e\xc54@'
p3780
tp3781
Rp3782
g1
(g5
S'\x85\xebQ\xb8\x1e\xc54@'
p3783
tp3784
Rp3785
F21.0
tp3786
a(I7400000
g1
(g5
S'\x00\x00\x00\x00\x00\xc04@'
p3787
tp3788
Rp3789
g3785
F19.0
tp3790
a(I7410000
g1
(g5
S'\x85\xebQ\xb8\x1e\xc54@'
p3791
tp3792
Rp3793
g3785
F21.0
tp3794
a(I7420000
g1
(g5
S'\n\xd7\xa3p=\xca4@'
p3795
tp3796
Rp3797
g1
(g5
S'\n\xd7\xa3p=\xca4@'
p3798
tp3799
Rp3800
F21.0
tp3801
a(I7430000
g1
(g5
S'\n\xd7\xa3p=\xca4@'
p3802
tp3803
Rp3804
g3800
F21.0
tp3805
a(I7440000
g1
(g5
S'\x8f\xc2\xf5(\\\xcf4@'
p3806
tp3807
Rp3808
g1
(g5
S'\x8f\xc2\xf5(\\\xcf4@'
p3809
tp3810
Rp3811
F21.0
tp3812
a(I7450000
g1
(g5
S'\x85\xebQ\xb8\x1e\xc54@'
p3813
tp3814
Rp3815
g3811
F20.0
tp3816
a(I7460000
g1
(g5
S'\x85\xebQ\xb8\x1e\xc54@'
p3817
tp3818
Rp3819
g3811
F21.0
tp3820
a(I7470000
g1
(g5
S'H\xe1z\x14\xae\xc74@'
p3821
tp3822
Rp3823
g3811
F21.0
tp3824
a(I7480000
g1
(g5
S'=\n\xd7\xa3p\xbd4@'
p3825
tp3826
Rp3827
g3811
F20.0
tp3828
a(I7490000
g1
(g5
S'\x00\x00\x00\x00\x00\xc04@'
p3829
tp3830
Rp3831
g3811
F21.0
tp3832
a(I7500000
g1
(g5
S'=\n\xd7\xa3p\xbd4@'
p3833
tp3834
Rp3835
g3811
F21.0
tp3836
a(I7510000
g1
(g5
S'\x00\x00\x00\x00\x00\xc04@'
p3837
tp3838
Rp3839
g3811
F21.0
tp3840
a(I7520000
g1
(g5
S'{\x14\xaeG\xe1\xba4@'
p3841
tp3842
Rp3843
g3811
F20.0
tp3844
a(I7530000
g1
(g5
S'=\n\xd7\xa3p\xbd4@'
p3845
tp3846
Rp3847
g3811
F21.0
tp3848
a(I7540000
g1
(g5
S'\x85\xebQ\xb8\x1e\xc54@'
p3849
tp3850
Rp3851
g3811
F21.0
tp3852
a(I7550000
g1
(g5
S'\xc3\xf5(\\\x8f\xc24@'
p3853
tp3854
Rp3855
g3811
F21.0
tp3856
a(I7560000
g1
(g5
S'\x00\x00\x00\x00\x00\xc04@'
p3857
tp3858
Rp3859
g3811
F21.0
tp3860
a(I7570000
g1
(g5
S'\x85\xebQ\xb8\x1e\xc54@'
p3861
tp3862
Rp3863
g3811
F21.0
tp3864
a(I7580000
g1
(g5
S'\xc3\xf5(\\\x8f\xc24@'
p3865
tp3866
Rp3867
g3811
F20.0
tp3868
a(I7590000
g1
(g5
S'{\x14\xaeG\xe1\xba4@'
p3869
tp3870
Rp3871
g3811
F21.0
tp3872
a(I7600000
g1
(g5
S'\xb8\x1e\x85\xebQ\xb84@'
p3873
tp3874
Rp3875
g3811
F21.0
tp3876
a(I7610000
g1
(g5
S'\xb8\x1e\x85\xebQ\xb84@'
p3877
tp3878
Rp3879
g3811
F21.0
tp3880
a(I7620000
g1
(g5
S'\x00\x00\x00\x00\x00\xc04@'
p3881
tp3882
Rp3883
g3811
F21.0
tp3884
a(I7630000
g1
(g5
S'\x00\x00\x00\x00\x00\xc04@'
p3885
tp3886
Rp3887
g3811
F20.0
tp3888
a(I7640000
g1
(g5
S'\xc3\xf5(\\\x8f\xc24@'
p3889
tp3890
Rp3891
g3811
F21.0
tp3892
a(I7650000
g1
(g5
S'H\xe1z\x14\xae\xc74@'
p3893
tp3894
Rp3895
g3811
F21.0
tp3896
a(I7660000
g1
(g5
S'H\xe1z\x14\xae\xc74@'
p3897
tp3898
Rp3899
g3811
F21.0
tp3900
a(I7670000
g1
(g5
S'H\xe1z\x14\xae\xc74@'
p3901
tp3902
Rp3903
g3811
F20.0
tp3904
a(I7680000
g1
(g5
S'\xcd\xcc\xcc\xcc\xcc\xcc4@'
p3905
tp3906
Rp3907
g3811
F21.0
tp3908
a(I7690000
g1
(g5
S'R\xb8\x1e\x85\xeb\xd14@'
p3909
tp3910
Rp3911
g1
(g5
S'R\xb8\x1e\x85\xeb\xd14@'
p3912
tp3913
Rp3914
F21.0
tp3915
a(I7700000
g1
(g5
S'\x8f\xc2\xf5(\\\xcf4@'
p3916
tp3917
Rp3918
g3914
F20.0
tp3919
a(I7710000
g1
(g5
S'H\xe1z\x14\xae\xc74@'
p3920
tp3921
Rp3922
g3914
F21.0
tp3923
a(I7720000
g1
(g5
S'\xc3\xf5(\\\x8f\xc24@'
p3924
tp3925
Rp3926
g3914
F19.0
tp3927
a(I7730000
g1
(g5
S'\x85\xebQ\xb8\x1e\xc54@'
p3928
tp3929
Rp3930
g3914
F21.0
tp3931
a(I7740000
g1
(g5
S'\xc3\xf5(\\\x8f\xc24@'
p3932
tp3933
Rp3934
g3914
F21.0
tp3935
a(I7750000
g1
(g5
S'\xc3\xf5(\\\x8f\xc24@'
p3936
tp3937
Rp3938
g3914
F20.0
tp3939
a(I7760000
g1
(g5
S'\xc3\xf5(\\\x8f\xc24@'
p3940
tp3941
Rp3942
g3914
F21.0
tp3943
a(I7770000
g1
(g5
S'\x85\xebQ\xb8\x1e\xc54@'
p3944
tp3945
Rp3946
g3914
F21.0
tp3947
a(I7780000
g1
(g5
S'\xc3\xf5(\\\x8f\xc24@'
p3948
tp3949
Rp3950
g3914
F21.0
tp3951
a(I7790000
g1
(g5
S'\x00\x00\x00\x00\x00\xc04@'
p3952
tp3953
Rp3954
g3914
F20.0
tp3955
a(I7800000
g1
(g5
S'{\x14\xaeG\xe1\xba4@'
p3956
tp3957
Rp3958
g3914
F21.0
tp3959
a(I7810000
g1
(g5
S'q=\n\xd7\xa3\xb04@'
p3960
tp3961
Rp3962
g3914
F20.0
tp3963
a(I7820000
g1
(g5
S'33333\xb34@'
p3964
tp3965
Rp3966
g3914
F21.0
tp3967
a(I7830000
g1
(g5
S'33333\xb34@'
p3968
tp3969
Rp3970
g3914
F21.0
tp3971
a(I7840000
g1
(g5
S'q=\n\xd7\xa3\xb04@'
p3972
tp3973
Rp3974
g3914
F20.0
tp3975
a(I7850000
g1
(g5
S'\xecQ\xb8\x1e\x85\xab4@'
p3976
tp3977
Rp3978
g3914
F21.0
tp3979
a(I7860000
g1
(g5
S'\xecQ\xb8\x1e\x85\xab4@'
p3980
tp3981
Rp3982
g3914
F21.0
tp3983
a(I7870000
g1
(g5
S'\xecQ\xb8\x1e\x85\xab4@'
p3984
tp3985
Rp3986
g3914
F20.0
tp3987
a(I7880000
g1
(g5
S'q=\n\xd7\xa3\xb04@'
p3988
tp3989
Rp3990
g3914
F21.0
tp3991
a(I7890000
g1
(g5
S'q=\n\xd7\xa3\xb04@'
p3992
tp3993
Rp3994
g3914
F20.0
tp3995
a(I7900000
g1
(g5
S'\xaeG\xe1z\x14\xae4@'
p3996
tp3997
Rp3998
g3914
F21.0
tp3999
a(I7910000
g1
(g5
S'33333\xb34@'
p4000
tp4001
Rp4002
g3914
F21.0
tp4003
a(I7920000
g1
(g5
S'\xb8\x1e\x85\xebQ\xb84@'
p4004
tp4005
Rp4006
g3914
F21.0
tp4007
a(I7930000
g1
(g5
S'q=\n\xd7\xa3\xb04@'
p4008
tp4009
Rp4010
g3914
F20.0
tp4011
a(I7940000
g1
(g5
S'\xaeG\xe1z\x14\xae4@'
p4012
tp4013
Rp4014
g3914
F21.0
tp4015
a(I7950000
g1
(g5
S'\xecQ\xb8\x1e\x85\xab4@'
p4016
tp4017
Rp4018
g3914
F21.0
tp4019
a(I7960000
g1
(g5
S'\xecQ\xb8\x1e\x85\xab4@'
p4020
tp4021
Rp4022
g3914
F21.0
tp4023
a(I7970000
g1
(g5
S'q=\n\xd7\xa3\xb04@'
p4024
tp4025
Rp4026
g3914
F20.0
tp4027
a(I7975096
g1
(g5
S'33333\xb34@'
p4028
tp4029
Rp4030
g3914
F20.0
tp4031
a.